
test.exe:     file format pei-x86-64


Disassembly of section .text:

0000000140001000 <__mingw_invalidParameterHandler>:
   140001000:	c3                   	ret
   140001001:	66 66 2e 0f 1f 84 00 	data16 cs nop WORD PTR [rax+rax*1+0x0]
   140001008:	00 00 00 00 
   14000100c:	0f 1f 40 00          	nop    DWORD PTR [rax+0x0]

0000000140001010 <pre_c_init>:
   140001010:	48 83 ec 28          	sub    rsp,0x28
   140001014:	48 8b 05 e5 33 00 00 	mov    rax,QWORD PTR [rip+0x33e5]        # 140004400 <.refptr.__mingw_initltsdrot_force>
   14000101b:	31 c9                	xor    ecx,ecx
   14000101d:	c7 00 01 00 00 00    	mov    DWORD PTR [rax],0x1
   140001023:	48 8b 05 e6 33 00 00 	mov    rax,QWORD PTR [rip+0x33e6]        # 140004410 <.refptr.__mingw_initltsdyn_force>
   14000102a:	c7 00 01 00 00 00    	mov    DWORD PTR [rax],0x1
   140001030:	48 8b 05 e9 33 00 00 	mov    rax,QWORD PTR [rip+0x33e9]        # 140004420 <.refptr.__mingw_initltssuo_force>
   140001037:	c7 00 01 00 00 00    	mov    DWORD PTR [rax],0x1
   14000103d:	48 8b 05 6c 33 00 00 	mov    rax,QWORD PTR [rip+0x336c]        # 1400043b0 <.refptr.__image_base__>
   140001044:	66 81 38 4d 5a       	cmp    WORD PTR [rax],0x5a4d
   140001049:	75 0f                	jne    14000105a <pre_c_init+0x4a>
   14000104b:	48 63 50 3c          	movsxd rdx,DWORD PTR [rax+0x3c]
   14000104f:	48 01 d0             	add    rax,rdx
   140001052:	81 38 50 45 00 00    	cmp    DWORD PTR [rax],0x4550
   140001058:	74 66                	je     1400010c0 <pre_c_init+0xb0>
   14000105a:	48 8b 05 8f 33 00 00 	mov    rax,QWORD PTR [rip+0x338f]        # 1400043f0 <.refptr.__mingw_app_type>
   140001061:	89 0d a5 5f 00 00    	mov    DWORD PTR [rip+0x5fa5],ecx        # 14000700c <managedapp>
   140001067:	8b 00                	mov    eax,DWORD PTR [rax]
   140001069:	85 c0                	test   eax,eax
   14000106b:	74 43                	je     1400010b0 <pre_c_init+0xa0>
   14000106d:	b9 02 00 00 00       	mov    ecx,0x2
   140001072:	e8 81 15 00 00       	call   1400025f8 <__set_app_type>
   140001077:	e8 04 15 00 00       	call   140002580 <__p__fmode>
   14000107c:	48 8b 15 3d 34 00 00 	mov    rdx,QWORD PTR [rip+0x343d]        # 1400044c0 <.refptr._fmode>
   140001083:	8b 12                	mov    edx,DWORD PTR [rdx]
   140001085:	89 10                	mov    DWORD PTR [rax],edx
   140001087:	e8 04 15 00 00       	call   140002590 <__p__commode>
   14000108c:	48 8b 15 0d 34 00 00 	mov    rdx,QWORD PTR [rip+0x340d]        # 1400044a0 <.refptr._commode>
   140001093:	8b 12                	mov    edx,DWORD PTR [rdx]
   140001095:	89 10                	mov    DWORD PTR [rax],edx
   140001097:	e8 14 05 00 00       	call   1400015b0 <_setargv>
   14000109c:	48 8b 05 bd 32 00 00 	mov    rax,QWORD PTR [rip+0x32bd]        # 140004360 <.refptr._MINGW_INSTALL_DEBUG_MATHERR>
   1400010a3:	83 38 01             	cmp    DWORD PTR [rax],0x1
   1400010a6:	74 50                	je     1400010f8 <pre_c_init+0xe8>
   1400010a8:	31 c0                	xor    eax,eax
   1400010aa:	48 83 c4 28          	add    rsp,0x28
   1400010ae:	c3                   	ret
   1400010af:	90                   	nop
   1400010b0:	b9 01 00 00 00       	mov    ecx,0x1
   1400010b5:	e8 3e 15 00 00       	call   1400025f8 <__set_app_type>
   1400010ba:	eb bb                	jmp    140001077 <pre_c_init+0x67>
   1400010bc:	0f 1f 40 00          	nop    DWORD PTR [rax+0x0]
   1400010c0:	0f b7 50 18          	movzx  edx,WORD PTR [rax+0x18]
   1400010c4:	66 81 fa 0b 01       	cmp    dx,0x10b
   1400010c9:	74 45                	je     140001110 <pre_c_init+0x100>
   1400010cb:	66 81 fa 0b 02       	cmp    dx,0x20b
   1400010d0:	75 88                	jne    14000105a <pre_c_init+0x4a>
   1400010d2:	83 b8 84 00 00 00 0e 	cmp    DWORD PTR [rax+0x84],0xe
   1400010d9:	0f 86 7b ff ff ff    	jbe    14000105a <pre_c_init+0x4a>
   1400010df:	8b 90 f8 00 00 00    	mov    edx,DWORD PTR [rax+0xf8]
   1400010e5:	31 c9                	xor    ecx,ecx
   1400010e7:	85 d2                	test   edx,edx
   1400010e9:	0f 95 c1             	setne  cl
   1400010ec:	e9 69 ff ff ff       	jmp    14000105a <pre_c_init+0x4a>
   1400010f1:	0f 1f 80 00 00 00 00 	nop    DWORD PTR [rax+0x0]
   1400010f8:	48 8b 0d e1 33 00 00 	mov    rcx,QWORD PTR [rip+0x33e1]        # 1400044e0 <.refptr._matherr>
   1400010ff:	e8 1c 0c 00 00       	call   140001d20 <__mingw_setusermatherr>
   140001104:	31 c0                	xor    eax,eax
   140001106:	48 83 c4 28          	add    rsp,0x28
   14000110a:	c3                   	ret
   14000110b:	0f 1f 44 00 00       	nop    DWORD PTR [rax+rax*1+0x0]
   140001110:	83 78 74 0e          	cmp    DWORD PTR [rax+0x74],0xe
   140001114:	0f 86 40 ff ff ff    	jbe    14000105a <pre_c_init+0x4a>
   14000111a:	44 8b 80 e8 00 00 00 	mov    r8d,DWORD PTR [rax+0xe8]
   140001121:	31 c9                	xor    ecx,ecx
   140001123:	45 85 c0             	test   r8d,r8d
   140001126:	0f 95 c1             	setne  cl
   140001129:	e9 2c ff ff ff       	jmp    14000105a <pre_c_init+0x4a>
   14000112e:	66 90                	xchg   ax,ax

0000000140001130 <pre_cpp_init>:
   140001130:	48 83 ec 38          	sub    rsp,0x38
   140001134:	48 8b 05 b5 33 00 00 	mov    rax,QWORD PTR [rip+0x33b5]        # 1400044f0 <.refptr._newmode>
   14000113b:	4c 8d 05 d6 5e 00 00 	lea    r8,[rip+0x5ed6]        # 140007018 <envp>
   140001142:	48 8d 15 d7 5e 00 00 	lea    rdx,[rip+0x5ed7]        # 140007020 <argv>
   140001149:	48 8d 0d d8 5e 00 00 	lea    rcx,[rip+0x5ed8]        # 140007028 <argc>
   140001150:	8b 00                	mov    eax,DWORD PTR [rax]
   140001152:	89 05 ac 5e 00 00    	mov    DWORD PTR [rip+0x5eac],eax        # 140007004 <startinfo>
   140001158:	48 8b 05 51 33 00 00 	mov    rax,QWORD PTR [rip+0x3351]        # 1400044b0 <.refptr._dowildcard>
   14000115f:	44 8b 08             	mov    r9d,DWORD PTR [rax]
   140001162:	48 8d 05 9b 5e 00 00 	lea    rax,[rip+0x5e9b]        # 140007004 <startinfo>
   140001169:	48 89 44 24 20       	mov    QWORD PTR [rsp+0x20],rax
   14000116e:	e8 75 14 00 00       	call   1400025e8 <__getmainargs>
   140001173:	90                   	nop
   140001174:	48 83 c4 38          	add    rsp,0x38
   140001178:	c3                   	ret
   140001179:	0f 1f 80 00 00 00 00 	nop    DWORD PTR [rax+0x0]

0000000140001180 <__tmainCRTStartup>:
   140001180:	41 54                	push   r12
   140001182:	55                   	push   rbp
   140001183:	57                   	push   rdi
   140001184:	56                   	push   rsi
   140001185:	53                   	push   rbx
   140001186:	48 83 ec 20          	sub    rsp,0x20
   14000118a:	48 8b 1d af 32 00 00 	mov    rbx,QWORD PTR [rip+0x32af]        # 140004440 <.refptr.__native_startup_lock>
   140001191:	48 8b 2d 00 70 00 00 	mov    rbp,QWORD PTR [rip+0x7000]        # 140008198 <__imp_Sleep>
   140001198:	31 ff                	xor    edi,edi
   14000119a:	65 48 8b 04 25 30 00 	mov    rax,QWORD PTR gs:0x30
   1400011a1:	00 00 
   1400011a3:	48 8b 70 08          	mov    rsi,QWORD PTR [rax+0x8]
   1400011a7:	eb 17                	jmp    1400011c0 <__tmainCRTStartup+0x40>
   1400011a9:	0f 1f 80 00 00 00 00 	nop    DWORD PTR [rax+0x0]
   1400011b0:	48 39 c6             	cmp    rsi,rax
   1400011b3:	0f 84 67 01 00 00    	je     140001320 <__tmainCRTStartup+0x1a0>
   1400011b9:	b9 e8 03 00 00       	mov    ecx,0x3e8
   1400011be:	ff d5                	call   rbp
   1400011c0:	48 89 f8             	mov    rax,rdi
   1400011c3:	f0 48 0f b1 33       	lock cmpxchg QWORD PTR [rbx],rsi
   1400011c8:	48 85 c0             	test   rax,rax
   1400011cb:	75 e3                	jne    1400011b0 <__tmainCRTStartup+0x30>
   1400011cd:	48 8b 35 7c 32 00 00 	mov    rsi,QWORD PTR [rip+0x327c]        # 140004450 <.refptr.__native_startup_state>
   1400011d4:	31 ff                	xor    edi,edi
   1400011d6:	8b 06                	mov    eax,DWORD PTR [rsi]
   1400011d8:	83 f8 01             	cmp    eax,0x1
   1400011db:	0f 84 56 01 00 00    	je     140001337 <__tmainCRTStartup+0x1b7>
   1400011e1:	8b 06                	mov    eax,DWORD PTR [rsi]
   1400011e3:	85 c0                	test   eax,eax
   1400011e5:	0f 84 b5 01 00 00    	je     1400013a0 <__tmainCRTStartup+0x220>
   1400011eb:	c7 05 13 5e 00 00 01 	mov    DWORD PTR [rip+0x5e13],0x1        # 140007008 <has_cctor>
   1400011f2:	00 00 00 
   1400011f5:	8b 06                	mov    eax,DWORD PTR [rsi]
   1400011f7:	83 f8 01             	cmp    eax,0x1
   1400011fa:	0f 84 4c 01 00 00    	je     14000134c <__tmainCRTStartup+0x1cc>
   140001200:	85 ff                	test   edi,edi
   140001202:	0f 84 65 01 00 00    	je     14000136d <__tmainCRTStartup+0x1ed>
   140001208:	48 8b 05 91 31 00 00 	mov    rax,QWORD PTR [rip+0x3191]        # 1400043a0 <.refptr.__dyn_tls_init_callback>
   14000120f:	48 8b 00             	mov    rax,QWORD PTR [rax]
   140001212:	48 85 c0             	test   rax,rax
   140001215:	74 0c                	je     140001223 <__tmainCRTStartup+0xa3>
   140001217:	45 31 c0             	xor    r8d,r8d
   14000121a:	ba 02 00 00 00       	mov    edx,0x2
   14000121f:	31 c9                	xor    ecx,ecx
   140001221:	ff d0                	call   rax
   140001223:	e8 58 07 00 00       	call   140001980 <_pei386_runtime_relocator>
   140001228:	48 8b 0d a1 32 00 00 	mov    rcx,QWORD PTR [rip+0x32a1]        # 1400044d0 <.refptr._gnu_exception_handler>
   14000122f:	ff 15 5b 6f 00 00    	call   QWORD PTR [rip+0x6f5b]        # 140008190 <__imp_SetUnhandledExceptionFilter>
   140001235:	48 8b 15 f4 31 00 00 	mov    rdx,QWORD PTR [rip+0x31f4]        # 140004430 <.refptr.__mingw_oldexcpt_handler>
   14000123c:	48 8d 0d bd fd ff ff 	lea    rcx,[rip+0xfffffffffffffdbd]        # 140001000 <__mingw_invalidParameterHandler>
   140001243:	48 89 02             	mov    QWORD PTR [rdx],rax
   140001246:	e8 65 13 00 00       	call   1400025b0 <_set_invalid_parameter_handler>
   14000124b:	e8 40 05 00 00       	call   140001790 <_fpreset>
   140001250:	8b 1d d2 5d 00 00    	mov    ebx,DWORD PTR [rip+0x5dd2]        # 140007028 <argc>
   140001256:	8d 7b 01             	lea    edi,[rbx+0x1]
   140001259:	48 63 ff             	movsxd rdi,edi
   14000125c:	48 c1 e7 03          	shl    rdi,0x3
   140001260:	48 89 f9             	mov    rcx,rdi
   140001263:	e8 f0 13 00 00       	call   140002658 <malloc>
   140001268:	4c 8b 25 b1 5d 00 00 	mov    r12,QWORD PTR [rip+0x5db1]        # 140007020 <argv>
   14000126f:	48 89 c5             	mov    rbp,rax
   140001272:	85 db                	test   ebx,ebx
   140001274:	0f 8e 46 01 00 00    	jle    1400013c0 <__tmainCRTStartup+0x240>
   14000127a:	48 83 ef 08          	sub    rdi,0x8
   14000127e:	31 db                	xor    ebx,ebx
   140001280:	49 8b 0c 1c          	mov    rcx,QWORD PTR [r12+rbx*1]
   140001284:	e8 ef 13 00 00       	call   140002678 <strlen>
   140001289:	48 8d 70 01          	lea    rsi,[rax+0x1]
   14000128d:	48 89 f1             	mov    rcx,rsi
   140001290:	e8 c3 13 00 00       	call   140002658 <malloc>
   140001295:	49 89 f0             	mov    r8,rsi
   140001298:	48 89 44 1d 00       	mov    QWORD PTR [rbp+rbx*1+0x0],rax
   14000129d:	49 8b 14 1c          	mov    rdx,QWORD PTR [r12+rbx*1]
   1400012a1:	48 89 c1             	mov    rcx,rax
   1400012a4:	48 83 c3 08          	add    rbx,0x8
   1400012a8:	e8 b3 13 00 00       	call   140002660 <memcpy>
   1400012ad:	48 39 df             	cmp    rdi,rbx
   1400012b0:	75 ce                	jne    140001280 <__tmainCRTStartup+0x100>
   1400012b2:	48 01 ef             	add    rdi,rbp
   1400012b5:	48 c7 07 00 00 00 00 	mov    QWORD PTR [rdi],0x0
   1400012bc:	48 89 2d 5d 5d 00 00 	mov    QWORD PTR [rip+0x5d5d],rbp        # 140007020 <argv>
   1400012c3:	e8 c8 02 00 00       	call   140001590 <__main>
   1400012c8:	48 8b 05 f1 30 00 00 	mov    rax,QWORD PTR [rip+0x30f1]        # 1400043c0 <.refptr.__imp___initenv>
   1400012cf:	4c 8b 05 42 5d 00 00 	mov    r8,QWORD PTR [rip+0x5d42]        # 140007018 <envp>
   1400012d6:	8b 0d 4c 5d 00 00    	mov    ecx,DWORD PTR [rip+0x5d4c]        # 140007028 <argc>
   1400012dc:	48 8b 00             	mov    rax,QWORD PTR [rax]
   1400012df:	4c 89 00             	mov    QWORD PTR [rax],r8
   1400012e2:	48 8b 15 37 5d 00 00 	mov    rdx,QWORD PTR [rip+0x5d37]        # 140007020 <argv>
   1400012e9:	e8 9f 01 00 00       	call   14000148d <main>
   1400012ee:	8b 0d 18 5d 00 00    	mov    ecx,DWORD PTR [rip+0x5d18]        # 14000700c <managedapp>
   1400012f4:	89 05 16 5d 00 00    	mov    DWORD PTR [rip+0x5d16],eax        # 140007010 <mainret>
   1400012fa:	85 c9                	test   ecx,ecx
   1400012fc:	0f 84 c6 00 00 00    	je     1400013c8 <__tmainCRTStartup+0x248>
   140001302:	8b 15 00 5d 00 00    	mov    edx,DWORD PTR [rip+0x5d00]        # 140007008 <has_cctor>
   140001308:	85 d2                	test   edx,edx
   14000130a:	74 74                	je     140001380 <__tmainCRTStartup+0x200>
   14000130c:	48 83 c4 20          	add    rsp,0x20
   140001310:	5b                   	pop    rbx
   140001311:	5e                   	pop    rsi
   140001312:	5f                   	pop    rdi
   140001313:	5d                   	pop    rbp
   140001314:	41 5c                	pop    r12
   140001316:	c3                   	ret
   140001317:	66 0f 1f 84 00 00 00 	nop    WORD PTR [rax+rax*1+0x0]
   14000131e:	00 00 
   140001320:	48 8b 35 29 31 00 00 	mov    rsi,QWORD PTR [rip+0x3129]        # 140004450 <.refptr.__native_startup_state>
   140001327:	bf 01 00 00 00       	mov    edi,0x1
   14000132c:	8b 06                	mov    eax,DWORD PTR [rsi]
   14000132e:	83 f8 01             	cmp    eax,0x1
   140001331:	0f 85 aa fe ff ff    	jne    1400011e1 <__tmainCRTStartup+0x61>
   140001337:	b9 1f 00 00 00       	mov    ecx,0x1f
   14000133c:	e8 c7 12 00 00       	call   140002608 <_amsg_exit>
   140001341:	8b 06                	mov    eax,DWORD PTR [rsi]
   140001343:	83 f8 01             	cmp    eax,0x1
   140001346:	0f 85 b4 fe ff ff    	jne    140001200 <__tmainCRTStartup+0x80>
   14000134c:	48 8b 15 1d 31 00 00 	mov    rdx,QWORD PTR [rip+0x311d]        # 140004470 <.refptr.__xc_z>
   140001353:	48 8b 0d 06 31 00 00 	mov    rcx,QWORD PTR [rip+0x3106]        # 140004460 <.refptr.__xc_a>
   14000135a:	e8 b9 12 00 00       	call   140002618 <_initterm>
   14000135f:	c7 06 02 00 00 00    	mov    DWORD PTR [rsi],0x2
   140001365:	85 ff                	test   edi,edi
   140001367:	0f 85 9b fe ff ff    	jne    140001208 <__tmainCRTStartup+0x88>
   14000136d:	31 c0                	xor    eax,eax
   14000136f:	48 87 03             	xchg   QWORD PTR [rbx],rax
   140001372:	e9 91 fe ff ff       	jmp    140001208 <__tmainCRTStartup+0x88>
   140001377:	66 0f 1f 84 00 00 00 	nop    WORD PTR [rax+rax*1+0x0]
   14000137e:	00 00 
   140001380:	e8 8b 12 00 00       	call   140002610 <_cexit>
   140001385:	8b 05 85 5c 00 00    	mov    eax,DWORD PTR [rip+0x5c85]        # 140007010 <mainret>
   14000138b:	48 83 c4 20          	add    rsp,0x20
   14000138f:	5b                   	pop    rbx
   140001390:	5e                   	pop    rsi
   140001391:	5f                   	pop    rdi
   140001392:	5d                   	pop    rbp
   140001393:	41 5c                	pop    r12
   140001395:	c3                   	ret
   140001396:	66 2e 0f 1f 84 00 00 	cs nop WORD PTR [rax+rax*1+0x0]
   14000139d:	00 00 00 
   1400013a0:	48 8b 15 e9 30 00 00 	mov    rdx,QWORD PTR [rip+0x30e9]        # 140004490 <.refptr.__xi_z>
   1400013a7:	48 8b 0d d2 30 00 00 	mov    rcx,QWORD PTR [rip+0x30d2]        # 140004480 <.refptr.__xi_a>
   1400013ae:	c7 06 01 00 00 00    	mov    DWORD PTR [rsi],0x1
   1400013b4:	e8 5f 12 00 00       	call   140002618 <_initterm>
   1400013b9:	e9 37 fe ff ff       	jmp    1400011f5 <__tmainCRTStartup+0x75>
   1400013be:	66 90                	xchg   ax,ax
   1400013c0:	48 89 c7             	mov    rdi,rax
   1400013c3:	e9 ed fe ff ff       	jmp    1400012b5 <__tmainCRTStartup+0x135>
   1400013c8:	89 c1                	mov    ecx,eax
   1400013ca:	e8 69 12 00 00       	call   140002638 <exit>
   1400013cf:	90                   	nop

00000001400013d0 <WinMainCRTStartup>:
   1400013d0:	48 83 ec 28          	sub    rsp,0x28

00000001400013d4 <.l_startw>:
   1400013d4:	48 8b 05 15 30 00 00 	mov    rax,QWORD PTR [rip+0x3015]        # 1400043f0 <.refptr.__mingw_app_type>
   1400013db:	c7 00 01 00 00 00    	mov    DWORD PTR [rax],0x1
   1400013e1:	e8 9a fd ff ff       	call   140001180 <__tmainCRTStartup>
   1400013e6:	90                   	nop

00000001400013e7 <.l_endw>:
   1400013e7:	90                   	nop
   1400013e8:	48 83 c4 28          	add    rsp,0x28
   1400013ec:	c3                   	ret
   1400013ed:	0f 1f 00             	nop    DWORD PTR [rax]

00000001400013f0 <mainCRTStartup>:
   1400013f0:	48 83 ec 28          	sub    rsp,0x28

00000001400013f4 <.l_start>:
   1400013f4:	48 8b 05 f5 2f 00 00 	mov    rax,QWORD PTR [rip+0x2ff5]        # 1400043f0 <.refptr.__mingw_app_type>
   1400013fb:	c7 00 00 00 00 00    	mov    DWORD PTR [rax],0x0
   140001401:	e8 7a fd ff ff       	call   140001180 <__tmainCRTStartup>
   140001406:	90                   	nop

0000000140001407 <.l_end>:
   140001407:	90                   	nop
   140001408:	48 83 c4 28          	add    rsp,0x28
   14000140c:	c3                   	ret
   14000140d:	0f 1f 00             	nop    DWORD PTR [rax]

0000000140001410 <atexit>:
   140001410:	48 83 ec 28          	sub    rsp,0x28
   140001414:	e8 07 12 00 00       	call   140002620 <_onexit>
   140001419:	48 83 f8 01          	cmp    rax,0x1
   14000141d:	19 c0                	sbb    eax,eax
   14000141f:	48 83 c4 28          	add    rsp,0x28
   140001423:	c3                   	ret
   140001424:	90                   	nop
   140001425:	90                   	nop
   140001426:	90                   	nop
   140001427:	90                   	nop
   140001428:	90                   	nop
   140001429:	90                   	nop
   14000142a:	90                   	nop
   14000142b:	90                   	nop
   14000142c:	90                   	nop
   14000142d:	90                   	nop
   14000142e:	90                   	nop
   14000142f:	90                   	nop

0000000140001430 <__gcc_register_frame>:
   140001430:	48 8d 0d 09 00 00 00 	lea    rcx,[rip+0x9]        # 140001440 <__gcc_deregister_frame>
   140001437:	e9 d4 ff ff ff       	jmp    140001410 <atexit>
   14000143c:	0f 1f 40 00          	nop    DWORD PTR [rax+0x0]

0000000140001440 <__gcc_deregister_frame>:
   140001440:	c3                   	ret
   140001441:	90                   	nop
   140001442:	90                   	nop
   140001443:	90                   	nop
   140001444:	90                   	nop
   140001445:	90                   	nop
   140001446:	90                   	nop
   140001447:	90                   	nop
   140001448:	90                   	nop
   140001449:	90                   	nop
   14000144a:	90                   	nop
   14000144b:	90                   	nop
   14000144c:	90                   	nop
   14000144d:	90                   	nop
   14000144e:	90                   	nop
   14000144f:	90                   	nop

0000000140001450 <_start>:
   140001450:	55                   	push   rbp
   140001451:	48 89 e5             	mov    rbp,rsp
   140001454:	90                   	nop
   140001455:	5d                   	pop    rbp
   140001456:	c3                   	ret

0000000140001457 <another>:
   140001457:	55                   	push   rbp
   140001458:	48 89 e5             	mov    rbp,rsp
   14000145b:	48 83 ec 20          	sub    rsp,0x20
   14000145f:	48 b8 ce fa 0d f0 be 	movabs rax,0xcafebabef00dface
   140001466:	ba fe ca 
   140001469:	48 89 45 f8          	mov    QWORD PTR [rbp-0x8],rax
   14000146d:	c7 45 f4 ef be ad de 	mov    DWORD PTR [rbp-0xc],0xdeadbeef
   140001474:	48 8d 05 85 2b 00 00 	lea    rax,[rip+0x2b85]        # 140004000 <.rdata>
   14000147b:	48 89 45 e8          	mov    QWORD PTR [rbp-0x18],rax
   14000147f:	c7 45 e4 63 68 61 72 	mov    DWORD PTR [rbp-0x1c],0x72616863
   140001486:	90                   	nop
   140001487:	48 83 c4 20          	add    rsp,0x20
   14000148b:	5d                   	pop    rbp
   14000148c:	c3                   	ret

000000014000148d <main>:
   14000148d:	55                   	push   rbp
   14000148e:	48 89 e5             	mov    rbp,rsp
   140001491:	48 83 ec 30          	sub    rsp,0x30
   140001495:	e8 f6 00 00 00       	call   140001590 <__main>
   14000149a:	c7 45 f0 01 00 00 00 	mov    DWORD PTR [rbp-0x10],0x1
   1400014a1:	c7 45 f4 02 00 00 00 	mov    DWORD PTR [rbp-0xc],0x2
   1400014a8:	c7 45 f8 03 00 00 00 	mov    DWORD PTR [rbp-0x8],0x3
   1400014af:	c7 45 fc 04 00 00 00 	mov    DWORD PTR [rbp-0x4],0x4
   1400014b6:	48 8d 05 48 2b 00 00 	lea    rax,[rip+0x2b48]        # 140004005 <.rdata+0x5>
   1400014bd:	48 89 c1             	mov    rcx,rax
   1400014c0:	e8 a3 11 00 00       	call   140002668 <puts>
   1400014c5:	e8 8d ff ff ff       	call   140001457 <another>
   1400014ca:	b8 01 00 00 00       	mov    eax,0x1
   1400014cf:	48 83 c4 30          	add    rsp,0x30
   1400014d3:	5d                   	pop    rbp
   1400014d4:	c3                   	ret
   1400014d5:	90                   	nop
   1400014d6:	90                   	nop
   1400014d7:	90                   	nop
   1400014d8:	90                   	nop
   1400014d9:	90                   	nop
   1400014da:	90                   	nop
   1400014db:	90                   	nop
   1400014dc:	90                   	nop
   1400014dd:	90                   	nop
   1400014de:	90                   	nop
   1400014df:	90                   	nop

00000001400014e0 <__do_global_dtors>:
   1400014e0:	48 83 ec 28          	sub    rsp,0x28
   1400014e4:	48 8b 05 15 1b 00 00 	mov    rax,QWORD PTR [rip+0x1b15]        # 140003000 <__data_start__>
   1400014eb:	48 8b 00             	mov    rax,QWORD PTR [rax]
   1400014ee:	48 85 c0             	test   rax,rax
   1400014f1:	74 22                	je     140001515 <__do_global_dtors+0x35>
   1400014f3:	0f 1f 44 00 00       	nop    DWORD PTR [rax+rax*1+0x0]
   1400014f8:	ff d0                	call   rax
   1400014fa:	48 8b 05 ff 1a 00 00 	mov    rax,QWORD PTR [rip+0x1aff]        # 140003000 <__data_start__>
   140001501:	48 8d 50 08          	lea    rdx,[rax+0x8]
   140001505:	48 8b 40 08          	mov    rax,QWORD PTR [rax+0x8]
   140001509:	48 89 15 f0 1a 00 00 	mov    QWORD PTR [rip+0x1af0],rdx        # 140003000 <__data_start__>
   140001510:	48 85 c0             	test   rax,rax
   140001513:	75 e3                	jne    1400014f8 <__do_global_dtors+0x18>
   140001515:	48 83 c4 28          	add    rsp,0x28
   140001519:	c3                   	ret
   14000151a:	66 0f 1f 44 00 00    	nop    WORD PTR [rax+rax*1+0x0]

0000000140001520 <__do_global_ctors>:
   140001520:	56                   	push   rsi
   140001521:	53                   	push   rbx
   140001522:	48 83 ec 28          	sub    rsp,0x28
   140001526:	48 8b 15 43 2e 00 00 	mov    rdx,QWORD PTR [rip+0x2e43]        # 140004370 <.refptr.__CTOR_LIST__>
   14000152d:	48 8b 02             	mov    rax,QWORD PTR [rdx]
   140001530:	89 c1                	mov    ecx,eax
   140001532:	83 f8 ff             	cmp    eax,0xffffffff
   140001535:	74 39                	je     140001570 <__do_global_ctors+0x50>
   140001537:	85 c9                	test   ecx,ecx
   140001539:	74 20                	je     14000155b <__do_global_ctors+0x3b>
   14000153b:	89 c8                	mov    eax,ecx
   14000153d:	83 e9 01             	sub    ecx,0x1
   140001540:	48 8d 1c c2          	lea    rbx,[rdx+rax*8]
   140001544:	48 29 c8             	sub    rax,rcx
   140001547:	48 8d 74 c2 f8       	lea    rsi,[rdx+rax*8-0x8]
   14000154c:	0f 1f 40 00          	nop    DWORD PTR [rax+0x0]
   140001550:	ff 13                	call   QWORD PTR [rbx]
   140001552:	48 83 eb 08          	sub    rbx,0x8
   140001556:	48 39 f3             	cmp    rbx,rsi
   140001559:	75 f5                	jne    140001550 <__do_global_ctors+0x30>
   14000155b:	48 8d 0d 7e ff ff ff 	lea    rcx,[rip+0xffffffffffffff7e]        # 1400014e0 <__do_global_dtors>
   140001562:	48 83 c4 28          	add    rsp,0x28
   140001566:	5b                   	pop    rbx
   140001567:	5e                   	pop    rsi
   140001568:	e9 a3 fe ff ff       	jmp    140001410 <atexit>
   14000156d:	0f 1f 00             	nop    DWORD PTR [rax]
   140001570:	31 c0                	xor    eax,eax
   140001572:	66 0f 1f 44 00 00    	nop    WORD PTR [rax+rax*1+0x0]
   140001578:	44 8d 40 01          	lea    r8d,[rax+0x1]
   14000157c:	89 c1                	mov    ecx,eax
   14000157e:	4a 83 3c c2 00       	cmp    QWORD PTR [rdx+r8*8],0x0
   140001583:	4c 89 c0             	mov    rax,r8
   140001586:	75 f0                	jne    140001578 <__do_global_ctors+0x58>
   140001588:	eb ad                	jmp    140001537 <__do_global_ctors+0x17>
   14000158a:	66 0f 1f 44 00 00    	nop    WORD PTR [rax+rax*1+0x0]

0000000140001590 <__main>:
   140001590:	8b 05 9a 5a 00 00    	mov    eax,DWORD PTR [rip+0x5a9a]        # 140007030 <initialized>
   140001596:	85 c0                	test   eax,eax
   140001598:	74 06                	je     1400015a0 <__main+0x10>
   14000159a:	c3                   	ret
   14000159b:	0f 1f 44 00 00       	nop    DWORD PTR [rax+rax*1+0x0]
   1400015a0:	c7 05 86 5a 00 00 01 	mov    DWORD PTR [rip+0x5a86],0x1        # 140007030 <initialized>
   1400015a7:	00 00 00 
   1400015aa:	e9 71 ff ff ff       	jmp    140001520 <__do_global_ctors>
   1400015af:	90                   	nop

00000001400015b0 <_setargv>:
   1400015b0:	31 c0                	xor    eax,eax
   1400015b2:	c3                   	ret
   1400015b3:	90                   	nop
   1400015b4:	90                   	nop
   1400015b5:	90                   	nop
   1400015b6:	90                   	nop
   1400015b7:	90                   	nop
   1400015b8:	90                   	nop
   1400015b9:	90                   	nop
   1400015ba:	90                   	nop
   1400015bb:	90                   	nop
   1400015bc:	90                   	nop
   1400015bd:	90                   	nop
   1400015be:	90                   	nop
   1400015bf:	90                   	nop

00000001400015c0 <__dyn_tls_dtor>:
   1400015c0:	48 83 ec 28          	sub    rsp,0x28
   1400015c4:	83 fa 03             	cmp    edx,0x3
   1400015c7:	74 17                	je     1400015e0 <__dyn_tls_dtor+0x20>
   1400015c9:	85 d2                	test   edx,edx
   1400015cb:	74 13                	je     1400015e0 <__dyn_tls_dtor+0x20>
   1400015cd:	b8 01 00 00 00       	mov    eax,0x1
   1400015d2:	48 83 c4 28          	add    rsp,0x28
   1400015d6:	c3                   	ret
   1400015d7:	66 0f 1f 84 00 00 00 	nop    WORD PTR [rax+rax*1+0x0]
   1400015de:	00 00 
   1400015e0:	e8 5b 0a 00 00       	call   140002040 <__mingw_TLScallback>
   1400015e5:	b8 01 00 00 00       	mov    eax,0x1
   1400015ea:	48 83 c4 28          	add    rsp,0x28
   1400015ee:	c3                   	ret
   1400015ef:	90                   	nop

00000001400015f0 <__dyn_tls_init>:
   1400015f0:	56                   	push   rsi
   1400015f1:	53                   	push   rbx
   1400015f2:	48 83 ec 28          	sub    rsp,0x28
   1400015f6:	48 8b 05 53 2d 00 00 	mov    rax,QWORD PTR [rip+0x2d53]        # 140004350 <.refptr._CRT_MT>
   1400015fd:	83 38 02             	cmp    DWORD PTR [rax],0x2
   140001600:	74 06                	je     140001608 <__dyn_tls_init+0x18>
   140001602:	c7 00 02 00 00 00    	mov    DWORD PTR [rax],0x2
   140001608:	83 fa 02             	cmp    edx,0x2
   14000160b:	74 13                	je     140001620 <__dyn_tls_init+0x30>
   14000160d:	83 fa 01             	cmp    edx,0x1
   140001610:	74 4e                	je     140001660 <__dyn_tls_init+0x70>
   140001612:	b8 01 00 00 00       	mov    eax,0x1
   140001617:	48 83 c4 28          	add    rsp,0x28
   14000161b:	5b                   	pop    rbx
   14000161c:	5e                   	pop    rsi
   14000161d:	c3                   	ret
   14000161e:	66 90                	xchg   ax,ax
   140001620:	48 8d 1d 31 7a 00 00 	lea    rbx,[rip+0x7a31]        # 140009058 <__xd_z>
   140001627:	48 8d 35 2a 7a 00 00 	lea    rsi,[rip+0x7a2a]        # 140009058 <__xd_z>
   14000162e:	48 39 de             	cmp    rsi,rbx
   140001631:	74 df                	je     140001612 <__dyn_tls_init+0x22>
   140001633:	0f 1f 44 00 00       	nop    DWORD PTR [rax+rax*1+0x0]
   140001638:	48 8b 03             	mov    rax,QWORD PTR [rbx]
   14000163b:	48 85 c0             	test   rax,rax
   14000163e:	74 02                	je     140001642 <__dyn_tls_init+0x52>
   140001640:	ff d0                	call   rax
   140001642:	48 83 c3 08          	add    rbx,0x8
   140001646:	48 39 de             	cmp    rsi,rbx
   140001649:	75 ed                	jne    140001638 <__dyn_tls_init+0x48>
   14000164b:	b8 01 00 00 00       	mov    eax,0x1
   140001650:	48 83 c4 28          	add    rsp,0x28
   140001654:	5b                   	pop    rbx
   140001655:	5e                   	pop    rsi
   140001656:	c3                   	ret
   140001657:	66 0f 1f 84 00 00 00 	nop    WORD PTR [rax+rax*1+0x0]
   14000165e:	00 00 
   140001660:	e8 db 09 00 00       	call   140002040 <__mingw_TLScallback>
   140001665:	b8 01 00 00 00       	mov    eax,0x1
   14000166a:	48 83 c4 28          	add    rsp,0x28
   14000166e:	5b                   	pop    rbx
   14000166f:	5e                   	pop    rsi
   140001670:	c3                   	ret
   140001671:	66 66 2e 0f 1f 84 00 	data16 cs nop WORD PTR [rax+rax*1+0x0]
   140001678:	00 00 00 00 
   14000167c:	0f 1f 40 00          	nop    DWORD PTR [rax+0x0]

0000000140001680 <__tlregdtor>:
   140001680:	31 c0                	xor    eax,eax
   140001682:	c3                   	ret
   140001683:	90                   	nop
   140001684:	90                   	nop
   140001685:	90                   	nop
   140001686:	90                   	nop
   140001687:	90                   	nop
   140001688:	90                   	nop
   140001689:	90                   	nop
   14000168a:	90                   	nop
   14000168b:	90                   	nop
   14000168c:	90                   	nop
   14000168d:	90                   	nop
   14000168e:	90                   	nop
   14000168f:	90                   	nop

0000000140001690 <_matherr>:
   140001690:	56                   	push   rsi
   140001691:	53                   	push   rbx
   140001692:	48 83 ec 78          	sub    rsp,0x78
   140001696:	0f 11 74 24 40       	movups XMMWORD PTR [rsp+0x40],xmm6
   14000169b:	0f 11 7c 24 50       	movups XMMWORD PTR [rsp+0x50],xmm7
   1400016a0:	44 0f 11 44 24 60    	movups XMMWORD PTR [rsp+0x60],xmm8
   1400016a6:	83 39 06             	cmp    DWORD PTR [rcx],0x6
   1400016a9:	0f 87 cd 00 00 00    	ja     14000177c <_matherr+0xec>
   1400016af:	8b 01                	mov    eax,DWORD PTR [rcx]
   1400016b1:	48 8d 15 ec 2a 00 00 	lea    rdx,[rip+0x2aec]        # 1400041a4 <.rdata+0x124>
   1400016b8:	48 63 04 82          	movsxd rax,DWORD PTR [rdx+rax*4]
   1400016bc:	48 01 d0             	add    rax,rdx
   1400016bf:	ff e0                	jmp    rax
   1400016c1:	0f 1f 80 00 00 00 00 	nop    DWORD PTR [rax+0x0]
   1400016c8:	48 8d 1d d0 29 00 00 	lea    rbx,[rip+0x29d0]        # 14000409f <.rdata+0x1f>
   1400016cf:	f2 44 0f 10 41 20    	movsd  xmm8,QWORD PTR [rcx+0x20]
   1400016d5:	f2 0f 10 79 18       	movsd  xmm7,QWORD PTR [rcx+0x18]
   1400016da:	f2 0f 10 71 10       	movsd  xmm6,QWORD PTR [rcx+0x10]
   1400016df:	48 8b 71 08          	mov    rsi,QWORD PTR [rcx+0x8]
   1400016e3:	b9 02 00 00 00       	mov    ecx,0x2
   1400016e8:	e8 d3 0e 00 00       	call   1400025c0 <__acrt_iob_func>
   1400016ed:	f2 44 0f 11 44 24 30 	movsd  QWORD PTR [rsp+0x30],xmm8
   1400016f4:	49 89 d8             	mov    r8,rbx
   1400016f7:	48 8d 15 7a 2a 00 00 	lea    rdx,[rip+0x2a7a]        # 140004178 <.rdata+0xf8>
   1400016fe:	f2 0f 11 7c 24 28    	movsd  QWORD PTR [rsp+0x28],xmm7
   140001704:	48 89 c1             	mov    rcx,rax
   140001707:	49 89 f1             	mov    r9,rsi
   14000170a:	f2 0f 11 74 24 20    	movsd  QWORD PTR [rsp+0x20],xmm6
   140001710:	e8 2b 0f 00 00       	call   140002640 <fprintf>
   140001715:	90                   	nop
   140001716:	0f 10 74 24 40       	movups xmm6,XMMWORD PTR [rsp+0x40]
   14000171b:	0f 10 7c 24 50       	movups xmm7,XMMWORD PTR [rsp+0x50]
   140001720:	31 c0                	xor    eax,eax
   140001722:	44 0f 10 44 24 60    	movups xmm8,XMMWORD PTR [rsp+0x60]
   140001728:	48 83 c4 78          	add    rsp,0x78
   14000172c:	5b                   	pop    rbx
   14000172d:	5e                   	pop    rsi
   14000172e:	c3                   	ret
   14000172f:	90                   	nop
   140001730:	48 8d 1d 49 29 00 00 	lea    rbx,[rip+0x2949]        # 140004080 <.rdata>
   140001737:	eb 96                	jmp    1400016cf <_matherr+0x3f>
   140001739:	0f 1f 80 00 00 00 00 	nop    DWORD PTR [rax+0x0]
   140001740:	48 8d 1d 99 29 00 00 	lea    rbx,[rip+0x2999]        # 1400040e0 <.rdata+0x60>
   140001747:	eb 86                	jmp    1400016cf <_matherr+0x3f>
   140001749:	0f 1f 80 00 00 00 00 	nop    DWORD PTR [rax+0x0]
   140001750:	48 8d 1d 69 29 00 00 	lea    rbx,[rip+0x2969]        # 1400040c0 <.rdata+0x40>
   140001757:	e9 73 ff ff ff       	jmp    1400016cf <_matherr+0x3f>
   14000175c:	0f 1f 40 00          	nop    DWORD PTR [rax+0x0]
   140001760:	48 8d 1d c9 29 00 00 	lea    rbx,[rip+0x29c9]        # 140004130 <.rdata+0xb0>
   140001767:	e9 63 ff ff ff       	jmp    1400016cf <_matherr+0x3f>
   14000176c:	0f 1f 40 00          	nop    DWORD PTR [rax+0x0]
   140001770:	48 8d 1d 91 29 00 00 	lea    rbx,[rip+0x2991]        # 140004108 <.rdata+0x88>
   140001777:	e9 53 ff ff ff       	jmp    1400016cf <_matherr+0x3f>
   14000177c:	48 8d 1d e3 29 00 00 	lea    rbx,[rip+0x29e3]        # 140004166 <.rdata+0xe6>
   140001783:	e9 47 ff ff ff       	jmp    1400016cf <_matherr+0x3f>
   140001788:	90                   	nop
   140001789:	90                   	nop
   14000178a:	90                   	nop
   14000178b:	90                   	nop
   14000178c:	90                   	nop
   14000178d:	90                   	nop
   14000178e:	90                   	nop
   14000178f:	90                   	nop

0000000140001790 <_fpreset>:
   140001790:	db e3                	fninit
   140001792:	c3                   	ret
   140001793:	90                   	nop
   140001794:	90                   	nop
   140001795:	90                   	nop
   140001796:	90                   	nop
   140001797:	90                   	nop
   140001798:	90                   	nop
   140001799:	90                   	nop
   14000179a:	90                   	nop
   14000179b:	90                   	nop
   14000179c:	90                   	nop
   14000179d:	90                   	nop
   14000179e:	90                   	nop
   14000179f:	90                   	nop

00000001400017a0 <__report_error>:
   1400017a0:	56                   	push   rsi
   1400017a1:	53                   	push   rbx
   1400017a2:	48 83 ec 38          	sub    rsp,0x38
   1400017a6:	48 89 cb             	mov    rbx,rcx
   1400017a9:	48 8d 44 24 58       	lea    rax,[rsp+0x58]
   1400017ae:	b9 02 00 00 00       	mov    ecx,0x2
   1400017b3:	48 89 54 24 58       	mov    QWORD PTR [rsp+0x58],rdx
   1400017b8:	4c 89 44 24 60       	mov    QWORD PTR [rsp+0x60],r8
   1400017bd:	4c 89 4c 24 68       	mov    QWORD PTR [rsp+0x68],r9
   1400017c2:	48 89 44 24 28       	mov    QWORD PTR [rsp+0x28],rax
   1400017c7:	e8 f4 0d 00 00       	call   1400025c0 <__acrt_iob_func>
   1400017cc:	41 b8 1b 00 00 00    	mov    r8d,0x1b
   1400017d2:	ba 01 00 00 00       	mov    edx,0x1
   1400017d7:	48 8d 0d e2 29 00 00 	lea    rcx,[rip+0x29e2]        # 1400041c0 <.rdata>
   1400017de:	49 89 c1             	mov    r9,rax
   1400017e1:	e8 6a 0e 00 00       	call   140002650 <fwrite>
   1400017e6:	48 8b 74 24 28       	mov    rsi,QWORD PTR [rsp+0x28]
   1400017eb:	b9 02 00 00 00       	mov    ecx,0x2
   1400017f0:	e8 cb 0d 00 00       	call   1400025c0 <__acrt_iob_func>
   1400017f5:	48 89 da             	mov    rdx,rbx
   1400017f8:	48 89 c1             	mov    rcx,rax
   1400017fb:	49 89 f0             	mov    r8,rsi
   1400017fe:	e8 85 0e 00 00       	call   140002688 <vfprintf>
   140001803:	e8 20 0e 00 00       	call   140002628 <abort>
   140001808:	90                   	nop
   140001809:	0f 1f 80 00 00 00 00 	nop    DWORD PTR [rax+0x0]

0000000140001810 <mark_section_writable>:
   140001810:	57                   	push   rdi
   140001811:	56                   	push   rsi
   140001812:	53                   	push   rbx
   140001813:	48 83 ec 50          	sub    rsp,0x50
   140001817:	48 63 35 76 58 00 00 	movsxd rsi,DWORD PTR [rip+0x5876]        # 140007094 <maxSections>
   14000181e:	48 89 cb             	mov    rbx,rcx
   140001821:	85 f6                	test   esi,esi
   140001823:	0f 8e 17 01 00 00    	jle    140001940 <mark_section_writable+0x130>
   140001829:	48 8b 05 68 58 00 00 	mov    rax,QWORD PTR [rip+0x5868]        # 140007098 <the_secs>
   140001830:	45 31 c9             	xor    r9d,r9d
   140001833:	48 83 c0 18          	add    rax,0x18
   140001837:	66 0f 1f 84 00 00 00 	nop    WORD PTR [rax+rax*1+0x0]
   14000183e:	00 00 
   140001840:	4c 8b 00             	mov    r8,QWORD PTR [rax]
   140001843:	4c 39 c3             	cmp    rbx,r8
   140001846:	72 13                	jb     14000185b <mark_section_writable+0x4b>
   140001848:	48 8b 50 08          	mov    rdx,QWORD PTR [rax+0x8]
   14000184c:	8b 52 08             	mov    edx,DWORD PTR [rdx+0x8]
   14000184f:	49 01 d0             	add    r8,rdx
   140001852:	4c 39 c3             	cmp    rbx,r8
   140001855:	0f 82 8a 00 00 00    	jb     1400018e5 <mark_section_writable+0xd5>
   14000185b:	41 83 c1 01          	add    r9d,0x1
   14000185f:	48 83 c0 28          	add    rax,0x28
   140001863:	41 39 f1             	cmp    r9d,esi
   140001866:	75 d8                	jne    140001840 <mark_section_writable+0x30>
   140001868:	48 89 d9             	mov    rcx,rbx
   14000186b:	e8 f0 09 00 00       	call   140002260 <__mingw_GetSectionForAddress>
   140001870:	48 89 c7             	mov    rdi,rax
   140001873:	48 85 c0             	test   rax,rax
   140001876:	0f 84 e6 00 00 00    	je     140001962 <mark_section_writable+0x152>
   14000187c:	48 8b 05 15 58 00 00 	mov    rax,QWORD PTR [rip+0x5815]        # 140007098 <the_secs>
   140001883:	48 8d 1c b6          	lea    rbx,[rsi+rsi*4]
   140001887:	48 c1 e3 03          	shl    rbx,0x3
   14000188b:	48 01 d8             	add    rax,rbx
   14000188e:	48 89 78 20          	mov    QWORD PTR [rax+0x20],rdi
   140001892:	c7 00 00 00 00 00    	mov    DWORD PTR [rax],0x0
   140001898:	e8 03 0b 00 00       	call   1400023a0 <_GetPEImageBase>
   14000189d:	8b 57 0c             	mov    edx,DWORD PTR [rdi+0xc]
   1400018a0:	41 b8 30 00 00 00    	mov    r8d,0x30
   1400018a6:	48 8d 0c 10          	lea    rcx,[rax+rdx*1]
   1400018aa:	48 8b 05 e7 57 00 00 	mov    rax,QWORD PTR [rip+0x57e7]        # 140007098 <the_secs>
   1400018b1:	48 8d 54 24 20       	lea    rdx,[rsp+0x20]
   1400018b6:	48 89 4c 18 18       	mov    QWORD PTR [rax+rbx*1+0x18],rcx
   1400018bb:	ff 15 ef 68 00 00    	call   QWORD PTR [rip+0x68ef]        # 1400081b0 <__imp_VirtualQuery>
   1400018c1:	48 85 c0             	test   rax,rax
   1400018c4:	0f 84 7d 00 00 00    	je     140001947 <mark_section_writable+0x137>
   1400018ca:	8b 44 24 44          	mov    eax,DWORD PTR [rsp+0x44]
   1400018ce:	8d 50 c0             	lea    edx,[rax-0x40]
   1400018d1:	83 e2 bf             	and    edx,0xffffffbf
   1400018d4:	74 08                	je     1400018de <mark_section_writable+0xce>
   1400018d6:	8d 50 fc             	lea    edx,[rax-0x4]
   1400018d9:	83 e2 fb             	and    edx,0xfffffffb
   1400018dc:	75 12                	jne    1400018f0 <mark_section_writable+0xe0>
   1400018de:	83 05 af 57 00 00 01 	add    DWORD PTR [rip+0x57af],0x1        # 140007094 <maxSections>
   1400018e5:	48 83 c4 50          	add    rsp,0x50
   1400018e9:	5b                   	pop    rbx
   1400018ea:	5e                   	pop    rsi
   1400018eb:	5f                   	pop    rdi
   1400018ec:	c3                   	ret
   1400018ed:	0f 1f 00             	nop    DWORD PTR [rax]
   1400018f0:	83 f8 02             	cmp    eax,0x2
   1400018f3:	48 8b 4c 24 20       	mov    rcx,QWORD PTR [rsp+0x20]
   1400018f8:	48 8b 54 24 38       	mov    rdx,QWORD PTR [rsp+0x38]
   1400018fd:	41 b8 40 00 00 00    	mov    r8d,0x40
   140001903:	b8 04 00 00 00       	mov    eax,0x4
   140001908:	44 0f 44 c0          	cmove  r8d,eax
   14000190c:	48 03 1d 85 57 00 00 	add    rbx,QWORD PTR [rip+0x5785]        # 140007098 <the_secs>
   140001913:	48 89 4b 08          	mov    QWORD PTR [rbx+0x8],rcx
   140001917:	49 89 d9             	mov    r9,rbx
   14000191a:	48 89 53 10          	mov    QWORD PTR [rbx+0x10],rdx
   14000191e:	ff 15 84 68 00 00    	call   QWORD PTR [rip+0x6884]        # 1400081a8 <__imp_VirtualProtect>
   140001924:	85 c0                	test   eax,eax
   140001926:	75 b6                	jne    1400018de <mark_section_writable+0xce>
   140001928:	ff 15 4a 68 00 00    	call   QWORD PTR [rip+0x684a]        # 140008178 <__imp_GetLastError>
   14000192e:	48 8d 0d 03 29 00 00 	lea    rcx,[rip+0x2903]        # 140004238 <.rdata+0x78>
   140001935:	89 c2                	mov    edx,eax
   140001937:	e8 64 fe ff ff       	call   1400017a0 <__report_error>
   14000193c:	0f 1f 40 00          	nop    DWORD PTR [rax+0x0]
   140001940:	31 f6                	xor    esi,esi
   140001942:	e9 21 ff ff ff       	jmp    140001868 <mark_section_writable+0x58>
   140001947:	48 8b 05 4a 57 00 00 	mov    rax,QWORD PTR [rip+0x574a]        # 140007098 <the_secs>
   14000194e:	8b 57 08             	mov    edx,DWORD PTR [rdi+0x8]
   140001951:	48 8d 0d a8 28 00 00 	lea    rcx,[rip+0x28a8]        # 140004200 <.rdata+0x40>
   140001958:	4c 8b 44 18 18       	mov    r8,QWORD PTR [rax+rbx*1+0x18]
   14000195d:	e8 3e fe ff ff       	call   1400017a0 <__report_error>
   140001962:	48 89 da             	mov    rdx,rbx
   140001965:	48 8d 0d 74 28 00 00 	lea    rcx,[rip+0x2874]        # 1400041e0 <.rdata+0x20>
   14000196c:	e8 2f fe ff ff       	call   1400017a0 <__report_error>
   140001971:	90                   	nop
   140001972:	66 66 2e 0f 1f 84 00 	data16 cs nop WORD PTR [rax+rax*1+0x0]
   140001979:	00 00 00 00 
   14000197d:	0f 1f 00             	nop    DWORD PTR [rax]

0000000140001980 <_pei386_runtime_relocator>:
   140001980:	55                   	push   rbp
   140001981:	41 57                	push   r15
   140001983:	41 56                	push   r14
   140001985:	41 55                	push   r13
   140001987:	41 54                	push   r12
   140001989:	57                   	push   rdi
   14000198a:	56                   	push   rsi
   14000198b:	53                   	push   rbx
   14000198c:	48 83 ec 48          	sub    rsp,0x48
   140001990:	48 8d 6c 24 40       	lea    rbp,[rsp+0x40]
   140001995:	44 8b 25 f4 56 00 00 	mov    r12d,DWORD PTR [rip+0x56f4]        # 140007090 <was_init.0>
   14000199c:	45 85 e4             	test   r12d,r12d
   14000199f:	74 17                	je     1400019b8 <_pei386_runtime_relocator+0x38>
   1400019a1:	48 8d 65 08          	lea    rsp,[rbp+0x8]
   1400019a5:	5b                   	pop    rbx
   1400019a6:	5e                   	pop    rsi
   1400019a7:	5f                   	pop    rdi
   1400019a8:	41 5c                	pop    r12
   1400019aa:	41 5d                	pop    r13
   1400019ac:	41 5e                	pop    r14
   1400019ae:	41 5f                	pop    r15
   1400019b0:	5d                   	pop    rbp
   1400019b1:	c3                   	ret
   1400019b2:	66 0f 1f 44 00 00    	nop    WORD PTR [rax+rax*1+0x0]
   1400019b8:	c7 05 ce 56 00 00 01 	mov    DWORD PTR [rip+0x56ce],0x1        # 140007090 <was_init.0>
   1400019bf:	00 00 00 
   1400019c2:	e8 19 09 00 00       	call   1400022e0 <__mingw_GetSectionCount>
   1400019c7:	48 98                	cdqe
   1400019c9:	48 8d 04 80          	lea    rax,[rax+rax*4]
   1400019cd:	48 8d 04 c5 0f 00 00 	lea    rax,[rax*8+0xf]
   1400019d4:	00 
   1400019d5:	48 83 e0 f0          	and    rax,0xfffffffffffffff0
   1400019d9:	e8 62 0b 00 00       	call   140002540 <___chkstk_ms>
   1400019de:	4c 8b 2d 9b 29 00 00 	mov    r13,QWORD PTR [rip+0x299b]        # 140004380 <.refptr.__RUNTIME_PSEUDO_RELOC_LIST_END__>
   1400019e5:	48 8b 1d a4 29 00 00 	mov    rbx,QWORD PTR [rip+0x29a4]        # 140004390 <.refptr.__RUNTIME_PSEUDO_RELOC_LIST__>
   1400019ec:	c7 05 9e 56 00 00 00 	mov    DWORD PTR [rip+0x569e],0x0        # 140007094 <maxSections>
   1400019f3:	00 00 00 
   1400019f6:	48 29 c4             	sub    rsp,rax
   1400019f9:	48 8d 44 24 30       	lea    rax,[rsp+0x30]
   1400019fe:	48 89 05 93 56 00 00 	mov    QWORD PTR [rip+0x5693],rax        # 140007098 <the_secs>
   140001a05:	4c 89 e8             	mov    rax,r13
   140001a08:	48 29 d8             	sub    rax,rbx
   140001a0b:	48 83 f8 07          	cmp    rax,0x7
   140001a0f:	7e 90                	jle    1400019a1 <_pei386_runtime_relocator+0x21>
   140001a11:	8b 13                	mov    edx,DWORD PTR [rbx]
   140001a13:	48 83 f8 0b          	cmp    rax,0xb
   140001a17:	0f 8f 7b 01 00 00    	jg     140001b98 <_pei386_runtime_relocator+0x218>
   140001a1d:	8b 03                	mov    eax,DWORD PTR [rbx]
   140001a1f:	85 c0                	test   eax,eax
   140001a21:	0f 85 69 02 00 00    	jne    140001c90 <_pei386_runtime_relocator+0x310>
   140001a27:	8b 43 04             	mov    eax,DWORD PTR [rbx+0x4]
   140001a2a:	85 c0                	test   eax,eax
   140001a2c:	0f 85 5e 02 00 00    	jne    140001c90 <_pei386_runtime_relocator+0x310>
   140001a32:	8b 53 08             	mov    edx,DWORD PTR [rbx+0x8]
   140001a35:	83 fa 01             	cmp    edx,0x1
   140001a38:	0f 85 90 02 00 00    	jne    140001cce <_pei386_runtime_relocator+0x34e>
   140001a3e:	48 83 c3 0c          	add    rbx,0xc
   140001a42:	4c 39 eb             	cmp    rbx,r13
   140001a45:	0f 83 56 ff ff ff    	jae    1400019a1 <_pei386_runtime_relocator+0x21>
   140001a4b:	4c 8b 35 5e 29 00 00 	mov    r14,QWORD PTR [rip+0x295e]        # 1400043b0 <.refptr.__image_base__>
   140001a52:	49 bf ff ff ff 7f ff 	movabs r15,0xffffffff7fffffff
   140001a59:	ff ff ff 
   140001a5c:	eb 54                	jmp    140001ab2 <_pei386_runtime_relocator+0x132>
   140001a5e:	66 90                	xchg   ax,ax
   140001a60:	0f b6 37             	movzx  esi,BYTE PTR [rdi]
   140001a63:	81 e1 c0 00 00 00    	and    ecx,0xc0
   140001a69:	40 84 f6             	test   sil,sil
   140001a6c:	0f 89 06 02 00 00    	jns    140001c78 <_pei386_runtime_relocator+0x2f8>
   140001a72:	48 81 ce 00 ff ff ff 	or     rsi,0xffffffffffffff00
   140001a79:	48 29 c6             	sub    rsi,rax
   140001a7c:	4c 01 ce             	add    rsi,r9
   140001a7f:	85 c9                	test   ecx,ecx
   140001a81:	75 17                	jne    140001a9a <_pei386_runtime_relocator+0x11a>
   140001a83:	48 81 fe ff 00 00 00 	cmp    rsi,0xff
   140001a8a:	0f 8f 4f 01 00 00    	jg     140001bdf <_pei386_runtime_relocator+0x25f>
   140001a90:	48 83 fe 80          	cmp    rsi,0xffffffffffffff80
   140001a94:	0f 8c 45 01 00 00    	jl     140001bdf <_pei386_runtime_relocator+0x25f>
   140001a9a:	48 89 f9             	mov    rcx,rdi
   140001a9d:	e8 6e fd ff ff       	call   140001810 <mark_section_writable>
   140001aa2:	40 88 37             	mov    BYTE PTR [rdi],sil
   140001aa5:	48 83 c3 0c          	add    rbx,0xc
   140001aa9:	4c 39 eb             	cmp    rbx,r13
   140001aac:	0f 83 8e 00 00 00    	jae    140001b40 <_pei386_runtime_relocator+0x1c0>
   140001ab2:	8b 03                	mov    eax,DWORD PTR [rbx]
   140001ab4:	8b 4b 08             	mov    ecx,DWORD PTR [rbx+0x8]
   140001ab7:	8b 7b 04             	mov    edi,DWORD PTR [rbx+0x4]
   140001aba:	4c 01 f0             	add    rax,r14
   140001abd:	0f b6 d1             	movzx  edx,cl
   140001ac0:	4c 8b 08             	mov    r9,QWORD PTR [rax]
   140001ac3:	4c 01 f7             	add    rdi,r14
   140001ac6:	83 fa 20             	cmp    edx,0x20
   140001ac9:	0f 84 29 01 00 00    	je     140001bf8 <_pei386_runtime_relocator+0x278>
   140001acf:	0f 87 eb 00 00 00    	ja     140001bc0 <_pei386_runtime_relocator+0x240>
   140001ad5:	83 fa 08             	cmp    edx,0x8
   140001ad8:	74 86                	je     140001a60 <_pei386_runtime_relocator+0xe0>
   140001ada:	83 fa 10             	cmp    edx,0x10
   140001add:	0f 85 df 01 00 00    	jne    140001cc2 <_pei386_runtime_relocator+0x342>
   140001ae3:	0f b7 37             	movzx  esi,WORD PTR [rdi]
   140001ae6:	81 e1 c0 00 00 00    	and    ecx,0xc0
   140001aec:	66 85 f6             	test   si,si
   140001aef:	0f 89 6b 01 00 00    	jns    140001c60 <_pei386_runtime_relocator+0x2e0>
   140001af5:	48 81 ce 00 00 ff ff 	or     rsi,0xffffffffffff0000
   140001afc:	48 29 c6             	sub    rsi,rax
   140001aff:	4c 01 ce             	add    rsi,r9
   140001b02:	85 c9                	test   ecx,ecx
   140001b04:	75 1a                	jne    140001b20 <_pei386_runtime_relocator+0x1a0>
   140001b06:	48 81 fe 00 80 ff ff 	cmp    rsi,0xffffffffffff8000
   140001b0d:	0f 8c cc 00 00 00    	jl     140001bdf <_pei386_runtime_relocator+0x25f>
   140001b13:	48 81 fe ff ff 00 00 	cmp    rsi,0xffff
   140001b1a:	0f 8f bf 00 00 00    	jg     140001bdf <_pei386_runtime_relocator+0x25f>
   140001b20:	48 89 f9             	mov    rcx,rdi
   140001b23:	48 83 c3 0c          	add    rbx,0xc
   140001b27:	e8 e4 fc ff ff       	call   140001810 <mark_section_writable>
   140001b2c:	66 89 37             	mov    WORD PTR [rdi],si
   140001b2f:	4c 39 eb             	cmp    rbx,r13
   140001b32:	0f 82 7a ff ff ff    	jb     140001ab2 <_pei386_runtime_relocator+0x132>
   140001b38:	0f 1f 84 00 00 00 00 	nop    DWORD PTR [rax+rax*1+0x0]
   140001b3f:	00 
   140001b40:	8b 15 4e 55 00 00    	mov    edx,DWORD PTR [rip+0x554e]        # 140007094 <maxSections>
   140001b46:	85 d2                	test   edx,edx
   140001b48:	0f 8e 53 fe ff ff    	jle    1400019a1 <_pei386_runtime_relocator+0x21>
   140001b4e:	48 8b 35 53 66 00 00 	mov    rsi,QWORD PTR [rip+0x6653]        # 1400081a8 <__imp_VirtualProtect>
   140001b55:	31 db                	xor    ebx,ebx
   140001b57:	48 8d 7d fc          	lea    rdi,[rbp-0x4]
   140001b5b:	0f 1f 44 00 00       	nop    DWORD PTR [rax+rax*1+0x0]
   140001b60:	48 8b 05 31 55 00 00 	mov    rax,QWORD PTR [rip+0x5531]        # 140007098 <the_secs>
   140001b67:	48 01 d8             	add    rax,rbx
   140001b6a:	44 8b 00             	mov    r8d,DWORD PTR [rax]
   140001b6d:	45 85 c0             	test   r8d,r8d
   140001b70:	74 0d                	je     140001b7f <_pei386_runtime_relocator+0x1ff>
   140001b72:	48 8b 50 10          	mov    rdx,QWORD PTR [rax+0x10]
   140001b76:	48 8b 48 08          	mov    rcx,QWORD PTR [rax+0x8]
   140001b7a:	49 89 f9             	mov    r9,rdi
   140001b7d:	ff d6                	call   rsi
   140001b7f:	41 83 c4 01          	add    r12d,0x1
   140001b83:	48 83 c3 28          	add    rbx,0x28
   140001b87:	44 3b 25 06 55 00 00 	cmp    r12d,DWORD PTR [rip+0x5506]        # 140007094 <maxSections>
   140001b8e:	7c d0                	jl     140001b60 <_pei386_runtime_relocator+0x1e0>
   140001b90:	e9 0c fe ff ff       	jmp    1400019a1 <_pei386_runtime_relocator+0x21>
   140001b95:	0f 1f 00             	nop    DWORD PTR [rax]
   140001b98:	85 d2                	test   edx,edx
   140001b9a:	0f 85 f0 00 00 00    	jne    140001c90 <_pei386_runtime_relocator+0x310>
   140001ba0:	8b 43 04             	mov    eax,DWORD PTR [rbx+0x4]
   140001ba3:	89 c2                	mov    edx,eax
   140001ba5:	0b 53 08             	or     edx,DWORD PTR [rbx+0x8]
   140001ba8:	0f 85 7c fe ff ff    	jne    140001a2a <_pei386_runtime_relocator+0xaa>
   140001bae:	48 83 c3 0c          	add    rbx,0xc
   140001bb2:	e9 66 fe ff ff       	jmp    140001a1d <_pei386_runtime_relocator+0x9d>
   140001bb7:	66 0f 1f 84 00 00 00 	nop    WORD PTR [rax+rax*1+0x0]
   140001bbe:	00 00 
   140001bc0:	83 fa 40             	cmp    edx,0x40
   140001bc3:	0f 85 f9 00 00 00    	jne    140001cc2 <_pei386_runtime_relocator+0x342>
   140001bc9:	48 8b 37             	mov    rsi,QWORD PTR [rdi]
   140001bcc:	48 29 c6             	sub    rsi,rax
   140001bcf:	4c 01 ce             	add    rsi,r9
   140001bd2:	81 e1 c0 00 00 00    	and    ecx,0xc0
   140001bd8:	75 66                	jne    140001c40 <_pei386_runtime_relocator+0x2c0>
   140001bda:	48 85 f6             	test   rsi,rsi
   140001bdd:	78 61                	js     140001c40 <_pei386_runtime_relocator+0x2c0>
   140001bdf:	48 89 74 24 20       	mov    QWORD PTR [rsp+0x20],rsi
   140001be4:	49 89 f8             	mov    r8,rdi
   140001be7:	48 8d 0d da 26 00 00 	lea    rcx,[rip+0x26da]        # 1400042c8 <.rdata+0x108>
   140001bee:	e8 ad fb ff ff       	call   1400017a0 <__report_error>
   140001bf3:	0f 1f 44 00 00       	nop    DWORD PTR [rax+rax*1+0x0]
   140001bf8:	8b 37                	mov    esi,DWORD PTR [rdi]
   140001bfa:	81 e1 c0 00 00 00    	and    ecx,0xc0
   140001c00:	85 f6                	test   esi,esi
   140001c02:	79 4c                	jns    140001c50 <_pei386_runtime_relocator+0x2d0>
   140001c04:	49 bb 00 00 00 00 ff 	movabs r11,0xffffffff00000000
   140001c0b:	ff ff ff 
   140001c0e:	4c 09 de             	or     rsi,r11
   140001c11:	48 29 c6             	sub    rsi,rax
   140001c14:	4c 01 ce             	add    rsi,r9
   140001c17:	85 c9                	test   ecx,ecx
   140001c19:	75 0f                	jne    140001c2a <_pei386_runtime_relocator+0x2aa>
   140001c1b:	4c 39 fe             	cmp    rsi,r15
   140001c1e:	7e bf                	jle    140001bdf <_pei386_runtime_relocator+0x25f>
   140001c20:	b8 ff ff ff ff       	mov    eax,0xffffffff
   140001c25:	48 39 c6             	cmp    rsi,rax
   140001c28:	7f b5                	jg     140001bdf <_pei386_runtime_relocator+0x25f>
   140001c2a:	48 89 f9             	mov    rcx,rdi
   140001c2d:	e8 de fb ff ff       	call   140001810 <mark_section_writable>
   140001c32:	89 37                	mov    DWORD PTR [rdi],esi
   140001c34:	e9 6c fe ff ff       	jmp    140001aa5 <_pei386_runtime_relocator+0x125>
   140001c39:	0f 1f 80 00 00 00 00 	nop    DWORD PTR [rax+0x0]
   140001c40:	48 89 f9             	mov    rcx,rdi
   140001c43:	e8 c8 fb ff ff       	call   140001810 <mark_section_writable>
   140001c48:	48 89 37             	mov    QWORD PTR [rdi],rsi
   140001c4b:	e9 55 fe ff ff       	jmp    140001aa5 <_pei386_runtime_relocator+0x125>
   140001c50:	48 29 c6             	sub    rsi,rax
   140001c53:	4c 01 ce             	add    rsi,r9
   140001c56:	85 c9                	test   ecx,ecx
   140001c58:	74 c1                	je     140001c1b <_pei386_runtime_relocator+0x29b>
   140001c5a:	eb ce                	jmp    140001c2a <_pei386_runtime_relocator+0x2aa>
   140001c5c:	0f 1f 40 00          	nop    DWORD PTR [rax+0x0]
   140001c60:	48 29 c6             	sub    rsi,rax
   140001c63:	4c 01 ce             	add    rsi,r9
   140001c66:	85 c9                	test   ecx,ecx
   140001c68:	0f 84 98 fe ff ff    	je     140001b06 <_pei386_runtime_relocator+0x186>
   140001c6e:	e9 ad fe ff ff       	jmp    140001b20 <_pei386_runtime_relocator+0x1a0>
   140001c73:	0f 1f 44 00 00       	nop    DWORD PTR [rax+rax*1+0x0]
   140001c78:	48 29 c6             	sub    rsi,rax
   140001c7b:	4c 01 ce             	add    rsi,r9
   140001c7e:	85 c9                	test   ecx,ecx
   140001c80:	0f 84 fd fd ff ff    	je     140001a83 <_pei386_runtime_relocator+0x103>
   140001c86:	e9 0f fe ff ff       	jmp    140001a9a <_pei386_runtime_relocator+0x11a>
   140001c8b:	0f 1f 44 00 00       	nop    DWORD PTR [rax+rax*1+0x0]
   140001c90:	4c 39 eb             	cmp    rbx,r13
   140001c93:	0f 83 08 fd ff ff    	jae    1400019a1 <_pei386_runtime_relocator+0x21>
   140001c99:	4c 8b 35 10 27 00 00 	mov    r14,QWORD PTR [rip+0x2710]        # 1400043b0 <.refptr.__image_base__>
   140001ca0:	8b 73 04             	mov    esi,DWORD PTR [rbx+0x4]
   140001ca3:	8b 3b                	mov    edi,DWORD PTR [rbx]
   140001ca5:	48 83 c3 08          	add    rbx,0x8
   140001ca9:	4c 01 f6             	add    rsi,r14
   140001cac:	03 3e                	add    edi,DWORD PTR [rsi]
   140001cae:	48 89 f1             	mov    rcx,rsi
   140001cb1:	e8 5a fb ff ff       	call   140001810 <mark_section_writable>
   140001cb6:	89 3e                	mov    DWORD PTR [rsi],edi
   140001cb8:	4c 39 eb             	cmp    rbx,r13
   140001cbb:	72 e3                	jb     140001ca0 <_pei386_runtime_relocator+0x320>
   140001cbd:	e9 7e fe ff ff       	jmp    140001b40 <_pei386_runtime_relocator+0x1c0>
   140001cc2:	48 8d 0d cf 25 00 00 	lea    rcx,[rip+0x25cf]        # 140004298 <.rdata+0xd8>
   140001cc9:	e8 d2 fa ff ff       	call   1400017a0 <__report_error>
   140001cce:	48 8d 0d 8b 25 00 00 	lea    rcx,[rip+0x258b]        # 140004260 <.rdata+0xa0>
   140001cd5:	e8 c6 fa ff ff       	call   1400017a0 <__report_error>
   140001cda:	90                   	nop
   140001cdb:	90                   	nop
   140001cdc:	90                   	nop
   140001cdd:	90                   	nop
   140001cde:	90                   	nop
   140001cdf:	90                   	nop

0000000140001ce0 <__mingw_raise_matherr>:
   140001ce0:	48 83 ec 58          	sub    rsp,0x58
   140001ce4:	48 8b 05 b5 53 00 00 	mov    rax,QWORD PTR [rip+0x53b5]        # 1400070a0 <stUserMathErr>
   140001ceb:	66 0f 14 d3          	unpcklpd xmm2,xmm3
   140001cef:	48 85 c0             	test   rax,rax
   140001cf2:	74 25                	je     140001d19 <__mingw_raise_matherr+0x39>
   140001cf4:	f2 0f 10 84 24 80 00 	movsd  xmm0,QWORD PTR [rsp+0x80]
   140001cfb:	00 00 
   140001cfd:	89 4c 24 20          	mov    DWORD PTR [rsp+0x20],ecx
   140001d01:	48 8d 4c 24 20       	lea    rcx,[rsp+0x20]
   140001d06:	48 89 54 24 28       	mov    QWORD PTR [rsp+0x28],rdx
   140001d0b:	0f 11 54 24 30       	movups XMMWORD PTR [rsp+0x30],xmm2
   140001d10:	f2 0f 11 44 24 40    	movsd  QWORD PTR [rsp+0x40],xmm0
   140001d16:	ff d0                	call   rax
   140001d18:	90                   	nop
   140001d19:	48 83 c4 58          	add    rsp,0x58
   140001d1d:	c3                   	ret
   140001d1e:	66 90                	xchg   ax,ax

0000000140001d20 <__mingw_setusermatherr>:
   140001d20:	48 89 0d 79 53 00 00 	mov    QWORD PTR [rip+0x5379],rcx        # 1400070a0 <stUserMathErr>
   140001d27:	e9 d4 08 00 00       	jmp    140002600 <__setusermatherr>
   140001d2c:	90                   	nop
   140001d2d:	90                   	nop
   140001d2e:	90                   	nop
   140001d2f:	90                   	nop

0000000140001d30 <_gnu_exception_handler>:
   140001d30:	53                   	push   rbx
   140001d31:	48 83 ec 20          	sub    rsp,0x20
   140001d35:	48 8b 11             	mov    rdx,QWORD PTR [rcx]
   140001d38:	8b 02                	mov    eax,DWORD PTR [rdx]
   140001d3a:	48 89 cb             	mov    rbx,rcx
   140001d3d:	89 c1                	mov    ecx,eax
   140001d3f:	81 e1 ff ff ff 20    	and    ecx,0x20ffffff
   140001d45:	81 f9 43 43 47 20    	cmp    ecx,0x20474343
   140001d4b:	0f 84 9f 00 00 00    	je     140001df0 <_gnu_exception_handler+0xc0>
   140001d51:	3d 96 00 00 c0       	cmp    eax,0xc0000096
   140001d56:	77 77                	ja     140001dcf <_gnu_exception_handler+0x9f>
   140001d58:	3d 8b 00 00 c0       	cmp    eax,0xc000008b
   140001d5d:	76 21                	jbe    140001d80 <_gnu_exception_handler+0x50>
   140001d5f:	05 73 ff ff 3f       	add    eax,0x3fffff73
   140001d64:	83 f8 09             	cmp    eax,0x9
   140001d67:	77 54                	ja     140001dbd <_gnu_exception_handler+0x8d>
   140001d69:	48 8d 15 b0 25 00 00 	lea    rdx,[rip+0x25b0]        # 140004320 <.rdata>
   140001d70:	48 63 04 82          	movsxd rax,DWORD PTR [rdx+rax*4]
   140001d74:	48 01 d0             	add    rax,rdx
   140001d77:	ff e0                	jmp    rax
   140001d79:	0f 1f 80 00 00 00 00 	nop    DWORD PTR [rax+0x0]
   140001d80:	3d 05 00 00 c0       	cmp    eax,0xc0000005
   140001d85:	0f 84 d5 00 00 00    	je     140001e60 <_gnu_exception_handler+0x130>
   140001d8b:	76 3b                	jbe    140001dc8 <_gnu_exception_handler+0x98>
   140001d8d:	3d 08 00 00 c0       	cmp    eax,0xc0000008
   140001d92:	74 29                	je     140001dbd <_gnu_exception_handler+0x8d>
   140001d94:	3d 1d 00 00 c0       	cmp    eax,0xc000001d
   140001d99:	75 34                	jne    140001dcf <_gnu_exception_handler+0x9f>
   140001d9b:	31 d2                	xor    edx,edx
   140001d9d:	b9 04 00 00 00       	mov    ecx,0x4
   140001da2:	e8 c9 08 00 00       	call   140002670 <signal>
   140001da7:	48 83 f8 01          	cmp    rax,0x1
   140001dab:	0f 84 d6 00 00 00    	je     140001e87 <_gnu_exception_handler+0x157>
   140001db1:	48 85 c0             	test   rax,rax
   140001db4:	74 19                	je     140001dcf <_gnu_exception_handler+0x9f>
   140001db6:	b9 04 00 00 00       	mov    ecx,0x4
   140001dbb:	ff d0                	call   rax
   140001dbd:	b8 ff ff ff ff       	mov    eax,0xffffffff
   140001dc2:	48 83 c4 20          	add    rsp,0x20
   140001dc6:	5b                   	pop    rbx
   140001dc7:	c3                   	ret
   140001dc8:	3d 02 00 00 80       	cmp    eax,0x80000002
   140001dcd:	74 ee                	je     140001dbd <_gnu_exception_handler+0x8d>
   140001dcf:	48 8b 05 ea 52 00 00 	mov    rax,QWORD PTR [rip+0x52ea]        # 1400070c0 <__mingw_oldexcpt_handler>
   140001dd6:	48 85 c0             	test   rax,rax
   140001dd9:	74 25                	je     140001e00 <_gnu_exception_handler+0xd0>
   140001ddb:	48 89 d9             	mov    rcx,rbx
   140001dde:	48 83 c4 20          	add    rsp,0x20
   140001de2:	5b                   	pop    rbx
   140001de3:	48 ff e0             	rex.W jmp rax
   140001de6:	66 2e 0f 1f 84 00 00 	cs nop WORD PTR [rax+rax*1+0x0]
   140001ded:	00 00 00 
   140001df0:	f6 42 04 01          	test   BYTE PTR [rdx+0x4],0x1
   140001df4:	0f 85 57 ff ff ff    	jne    140001d51 <_gnu_exception_handler+0x21>
   140001dfa:	eb c1                	jmp    140001dbd <_gnu_exception_handler+0x8d>
   140001dfc:	0f 1f 40 00          	nop    DWORD PTR [rax+0x0]
   140001e00:	31 c0                	xor    eax,eax
   140001e02:	48 83 c4 20          	add    rsp,0x20
   140001e06:	5b                   	pop    rbx
   140001e07:	c3                   	ret
   140001e08:	0f 1f 84 00 00 00 00 	nop    DWORD PTR [rax+rax*1+0x0]
   140001e0f:	00 
   140001e10:	31 d2                	xor    edx,edx
   140001e12:	b9 08 00 00 00       	mov    ecx,0x8
   140001e17:	e8 54 08 00 00       	call   140002670 <signal>
   140001e1c:	48 83 f8 01          	cmp    rax,0x1
   140001e20:	0f 84 89 00 00 00    	je     140001eaf <_gnu_exception_handler+0x17f>
   140001e26:	48 85 c0             	test   rax,rax
   140001e29:	74 a4                	je     140001dcf <_gnu_exception_handler+0x9f>
   140001e2b:	b9 08 00 00 00       	mov    ecx,0x8
   140001e30:	ff d0                	call   rax
   140001e32:	eb 89                	jmp    140001dbd <_gnu_exception_handler+0x8d>
   140001e34:	0f 1f 40 00          	nop    DWORD PTR [rax+0x0]
   140001e38:	31 d2                	xor    edx,edx
   140001e3a:	b9 08 00 00 00       	mov    ecx,0x8
   140001e3f:	e8 2c 08 00 00       	call   140002670 <signal>
   140001e44:	48 83 f8 01          	cmp    rax,0x1
   140001e48:	75 dc                	jne    140001e26 <_gnu_exception_handler+0xf6>
   140001e4a:	ba 01 00 00 00       	mov    edx,0x1
   140001e4f:	b9 08 00 00 00       	mov    ecx,0x8
   140001e54:	e8 17 08 00 00       	call   140002670 <signal>
   140001e59:	e9 5f ff ff ff       	jmp    140001dbd <_gnu_exception_handler+0x8d>
   140001e5e:	66 90                	xchg   ax,ax
   140001e60:	31 d2                	xor    edx,edx
   140001e62:	b9 0b 00 00 00       	mov    ecx,0xb
   140001e67:	e8 04 08 00 00       	call   140002670 <signal>
   140001e6c:	48 83 f8 01          	cmp    rax,0x1
   140001e70:	74 29                	je     140001e9b <_gnu_exception_handler+0x16b>
   140001e72:	48 85 c0             	test   rax,rax
   140001e75:	0f 84 54 ff ff ff    	je     140001dcf <_gnu_exception_handler+0x9f>
   140001e7b:	b9 0b 00 00 00       	mov    ecx,0xb
   140001e80:	ff d0                	call   rax
   140001e82:	e9 36 ff ff ff       	jmp    140001dbd <_gnu_exception_handler+0x8d>
   140001e87:	ba 01 00 00 00       	mov    edx,0x1
   140001e8c:	b9 04 00 00 00       	mov    ecx,0x4
   140001e91:	e8 da 07 00 00       	call   140002670 <signal>
   140001e96:	e9 22 ff ff ff       	jmp    140001dbd <_gnu_exception_handler+0x8d>
   140001e9b:	ba 01 00 00 00       	mov    edx,0x1
   140001ea0:	b9 0b 00 00 00       	mov    ecx,0xb
   140001ea5:	e8 c6 07 00 00       	call   140002670 <signal>
   140001eaa:	e9 0e ff ff ff       	jmp    140001dbd <_gnu_exception_handler+0x8d>
   140001eaf:	ba 01 00 00 00       	mov    edx,0x1
   140001eb4:	b9 08 00 00 00       	mov    ecx,0x8
   140001eb9:	e8 b2 07 00 00       	call   140002670 <signal>
   140001ebe:	e8 cd f8 ff ff       	call   140001790 <_fpreset>
   140001ec3:	e9 f5 fe ff ff       	jmp    140001dbd <_gnu_exception_handler+0x8d>
   140001ec8:	90                   	nop
   140001ec9:	90                   	nop
   140001eca:	90                   	nop
   140001ecb:	90                   	nop
   140001ecc:	90                   	nop
   140001ecd:	90                   	nop
   140001ece:	90                   	nop
   140001ecf:	90                   	nop

0000000140001ed0 <__mingwthr_run_key_dtors.part.0>:
   140001ed0:	41 54                	push   r12
   140001ed2:	55                   	push   rbp
   140001ed3:	57                   	push   rdi
   140001ed4:	56                   	push   rsi
   140001ed5:	53                   	push   rbx
   140001ed6:	48 83 ec 20          	sub    rsp,0x20
   140001eda:	4c 8d 25 1f 52 00 00 	lea    r12,[rip+0x521f]        # 140007100 <__mingwthr_cs>
   140001ee1:	4c 89 e1             	mov    rcx,r12
   140001ee4:	ff 15 86 62 00 00    	call   QWORD PTR [rip+0x6286]        # 140008170 <__imp_EnterCriticalSection>
   140001eea:	48 8b 1d ef 51 00 00 	mov    rbx,QWORD PTR [rip+0x51ef]        # 1400070e0 <key_dtor_list>
   140001ef1:	48 85 db             	test   rbx,rbx
   140001ef4:	74 36                	je     140001f2c <__mingwthr_run_key_dtors.part.0+0x5c>
   140001ef6:	48 8b 2d a3 62 00 00 	mov    rbp,QWORD PTR [rip+0x62a3]        # 1400081a0 <__imp_TlsGetValue>
   140001efd:	48 8b 3d 74 62 00 00 	mov    rdi,QWORD PTR [rip+0x6274]        # 140008178 <__imp_GetLastError>
   140001f04:	0f 1f 40 00          	nop    DWORD PTR [rax+0x0]
   140001f08:	8b 0b                	mov    ecx,DWORD PTR [rbx]
   140001f0a:	ff d5                	call   rbp
   140001f0c:	48 89 c6             	mov    rsi,rax
   140001f0f:	ff d7                	call   rdi
   140001f11:	85 c0                	test   eax,eax
   140001f13:	75 0e                	jne    140001f23 <__mingwthr_run_key_dtors.part.0+0x53>
   140001f15:	48 85 f6             	test   rsi,rsi
   140001f18:	74 09                	je     140001f23 <__mingwthr_run_key_dtors.part.0+0x53>
   140001f1a:	48 8b 43 08          	mov    rax,QWORD PTR [rbx+0x8]
   140001f1e:	48 89 f1             	mov    rcx,rsi
   140001f21:	ff d0                	call   rax
   140001f23:	48 8b 5b 10          	mov    rbx,QWORD PTR [rbx+0x10]
   140001f27:	48 85 db             	test   rbx,rbx
   140001f2a:	75 dc                	jne    140001f08 <__mingwthr_run_key_dtors.part.0+0x38>
   140001f2c:	4c 89 e1             	mov    rcx,r12
   140001f2f:	48 83 c4 20          	add    rsp,0x20
   140001f33:	5b                   	pop    rbx
   140001f34:	5e                   	pop    rsi
   140001f35:	5f                   	pop    rdi
   140001f36:	5d                   	pop    rbp
   140001f37:	41 5c                	pop    r12
   140001f39:	48 ff 25 48 62 00 00 	rex.W jmp QWORD PTR [rip+0x6248]        # 140008188 <__imp_LeaveCriticalSection>

0000000140001f40 <___w64_mingwthr_add_key_dtor>:
   140001f40:	57                   	push   rdi
   140001f41:	56                   	push   rsi
   140001f42:	53                   	push   rbx
   140001f43:	48 83 ec 20          	sub    rsp,0x20
   140001f47:	8b 05 9b 51 00 00    	mov    eax,DWORD PTR [rip+0x519b]        # 1400070e8 <__mingwthr_cs_init>
   140001f4d:	89 cf                	mov    edi,ecx
   140001f4f:	48 89 d6             	mov    rsi,rdx
   140001f52:	85 c0                	test   eax,eax
   140001f54:	75 0a                	jne    140001f60 <___w64_mingwthr_add_key_dtor+0x20>
   140001f56:	31 c0                	xor    eax,eax
   140001f58:	48 83 c4 20          	add    rsp,0x20
   140001f5c:	5b                   	pop    rbx
   140001f5d:	5e                   	pop    rsi
   140001f5e:	5f                   	pop    rdi
   140001f5f:	c3                   	ret
   140001f60:	ba 18 00 00 00       	mov    edx,0x18
   140001f65:	b9 01 00 00 00       	mov    ecx,0x1
   140001f6a:	e8 c1 06 00 00       	call   140002630 <calloc>
   140001f6f:	48 89 c3             	mov    rbx,rax
   140001f72:	48 85 c0             	test   rax,rax
   140001f75:	74 33                	je     140001faa <___w64_mingwthr_add_key_dtor+0x6a>
   140001f77:	48 89 70 08          	mov    QWORD PTR [rax+0x8],rsi
   140001f7b:	48 8d 35 7e 51 00 00 	lea    rsi,[rip+0x517e]        # 140007100 <__mingwthr_cs>
   140001f82:	89 38                	mov    DWORD PTR [rax],edi
   140001f84:	48 89 f1             	mov    rcx,rsi
   140001f87:	ff 15 e3 61 00 00    	call   QWORD PTR [rip+0x61e3]        # 140008170 <__imp_EnterCriticalSection>
   140001f8d:	48 8b 05 4c 51 00 00 	mov    rax,QWORD PTR [rip+0x514c]        # 1400070e0 <key_dtor_list>
   140001f94:	48 89 f1             	mov    rcx,rsi
   140001f97:	48 89 1d 42 51 00 00 	mov    QWORD PTR [rip+0x5142],rbx        # 1400070e0 <key_dtor_list>
   140001f9e:	48 89 43 10          	mov    QWORD PTR [rbx+0x10],rax
   140001fa2:	ff 15 e0 61 00 00    	call   QWORD PTR [rip+0x61e0]        # 140008188 <__imp_LeaveCriticalSection>
   140001fa8:	eb ac                	jmp    140001f56 <___w64_mingwthr_add_key_dtor+0x16>
   140001faa:	83 c8 ff             	or     eax,0xffffffff
   140001fad:	eb a9                	jmp    140001f58 <___w64_mingwthr_add_key_dtor+0x18>
   140001faf:	90                   	nop

0000000140001fb0 <___w64_mingwthr_remove_key_dtor>:
   140001fb0:	56                   	push   rsi
   140001fb1:	53                   	push   rbx
   140001fb2:	48 83 ec 28          	sub    rsp,0x28
   140001fb6:	8b 05 2c 51 00 00    	mov    eax,DWORD PTR [rip+0x512c]        # 1400070e8 <__mingwthr_cs_init>
   140001fbc:	89 cb                	mov    ebx,ecx
   140001fbe:	85 c0                	test   eax,eax
   140001fc0:	75 0e                	jne    140001fd0 <___w64_mingwthr_remove_key_dtor+0x20>
   140001fc2:	31 c0                	xor    eax,eax
   140001fc4:	48 83 c4 28          	add    rsp,0x28
   140001fc8:	5b                   	pop    rbx
   140001fc9:	5e                   	pop    rsi
   140001fca:	c3                   	ret
   140001fcb:	0f 1f 44 00 00       	nop    DWORD PTR [rax+rax*1+0x0]
   140001fd0:	48 8d 35 29 51 00 00 	lea    rsi,[rip+0x5129]        # 140007100 <__mingwthr_cs>
   140001fd7:	48 89 f1             	mov    rcx,rsi
   140001fda:	ff 15 90 61 00 00    	call   QWORD PTR [rip+0x6190]        # 140008170 <__imp_EnterCriticalSection>
   140001fe0:	48 8b 0d f9 50 00 00 	mov    rcx,QWORD PTR [rip+0x50f9]        # 1400070e0 <key_dtor_list>
   140001fe7:	48 85 c9             	test   rcx,rcx
   140001fea:	74 27                	je     140002013 <___w64_mingwthr_remove_key_dtor+0x63>
   140001fec:	31 d2                	xor    edx,edx
   140001fee:	eb 0b                	jmp    140001ffb <___w64_mingwthr_remove_key_dtor+0x4b>
   140001ff0:	48 89 ca             	mov    rdx,rcx
   140001ff3:	48 85 c0             	test   rax,rax
   140001ff6:	74 1b                	je     140002013 <___w64_mingwthr_remove_key_dtor+0x63>
   140001ff8:	48 89 c1             	mov    rcx,rax
   140001ffb:	8b 01                	mov    eax,DWORD PTR [rcx]
   140001ffd:	39 d8                	cmp    eax,ebx
   140001fff:	48 8b 41 10          	mov    rax,QWORD PTR [rcx+0x10]
   140002003:	75 eb                	jne    140001ff0 <___w64_mingwthr_remove_key_dtor+0x40>
   140002005:	48 85 d2             	test   rdx,rdx
   140002008:	74 1e                	je     140002028 <___w64_mingwthr_remove_key_dtor+0x78>
   14000200a:	48 89 42 10          	mov    QWORD PTR [rdx+0x10],rax
   14000200e:	e8 35 06 00 00       	call   140002648 <free>
   140002013:	48 89 f1             	mov    rcx,rsi
   140002016:	ff 15 6c 61 00 00    	call   QWORD PTR [rip+0x616c]        # 140008188 <__imp_LeaveCriticalSection>
   14000201c:	31 c0                	xor    eax,eax
   14000201e:	48 83 c4 28          	add    rsp,0x28
   140002022:	5b                   	pop    rbx
   140002023:	5e                   	pop    rsi
   140002024:	c3                   	ret
   140002025:	0f 1f 00             	nop    DWORD PTR [rax]
   140002028:	48 89 05 b1 50 00 00 	mov    QWORD PTR [rip+0x50b1],rax        # 1400070e0 <key_dtor_list>
   14000202f:	eb dd                	jmp    14000200e <___w64_mingwthr_remove_key_dtor+0x5e>
   140002031:	66 66 2e 0f 1f 84 00 	data16 cs nop WORD PTR [rax+rax*1+0x0]
   140002038:	00 00 00 00 
   14000203c:	0f 1f 40 00          	nop    DWORD PTR [rax+0x0]

0000000140002040 <__mingw_TLScallback>:
   140002040:	53                   	push   rbx
   140002041:	48 83 ec 20          	sub    rsp,0x20
   140002045:	83 fa 02             	cmp    edx,0x2
   140002048:	0f 84 b2 00 00 00    	je     140002100 <__mingw_TLScallback+0xc0>
   14000204e:	77 30                	ja     140002080 <__mingw_TLScallback+0x40>
   140002050:	85 d2                	test   edx,edx
   140002052:	74 4c                	je     1400020a0 <__mingw_TLScallback+0x60>
   140002054:	8b 05 8e 50 00 00    	mov    eax,DWORD PTR [rip+0x508e]        # 1400070e8 <__mingwthr_cs_init>
   14000205a:	85 c0                	test   eax,eax
   14000205c:	0f 84 be 00 00 00    	je     140002120 <__mingw_TLScallback+0xe0>
   140002062:	c7 05 7c 50 00 00 01 	mov    DWORD PTR [rip+0x507c],0x1        # 1400070e8 <__mingwthr_cs_init>
   140002069:	00 00 00 
   14000206c:	b8 01 00 00 00       	mov    eax,0x1
   140002071:	48 83 c4 20          	add    rsp,0x20
   140002075:	5b                   	pop    rbx
   140002076:	c3                   	ret
   140002077:	66 0f 1f 84 00 00 00 	nop    WORD PTR [rax+rax*1+0x0]
   14000207e:	00 00 
   140002080:	83 fa 03             	cmp    edx,0x3
   140002083:	75 e7                	jne    14000206c <__mingw_TLScallback+0x2c>
   140002085:	8b 05 5d 50 00 00    	mov    eax,DWORD PTR [rip+0x505d]        # 1400070e8 <__mingwthr_cs_init>
   14000208b:	85 c0                	test   eax,eax
   14000208d:	74 dd                	je     14000206c <__mingw_TLScallback+0x2c>
   14000208f:	e8 3c fe ff ff       	call   140001ed0 <__mingwthr_run_key_dtors.part.0>
   140002094:	eb d6                	jmp    14000206c <__mingw_TLScallback+0x2c>
   140002096:	66 2e 0f 1f 84 00 00 	cs nop WORD PTR [rax+rax*1+0x0]
   14000209d:	00 00 00 
   1400020a0:	8b 05 42 50 00 00    	mov    eax,DWORD PTR [rip+0x5042]        # 1400070e8 <__mingwthr_cs_init>
   1400020a6:	85 c0                	test   eax,eax
   1400020a8:	75 66                	jne    140002110 <__mingw_TLScallback+0xd0>
   1400020aa:	8b 05 38 50 00 00    	mov    eax,DWORD PTR [rip+0x5038]        # 1400070e8 <__mingwthr_cs_init>
   1400020b0:	83 f8 01             	cmp    eax,0x1
   1400020b3:	75 b7                	jne    14000206c <__mingw_TLScallback+0x2c>
   1400020b5:	48 8b 1d 24 50 00 00 	mov    rbx,QWORD PTR [rip+0x5024]        # 1400070e0 <key_dtor_list>
   1400020bc:	48 85 db             	test   rbx,rbx
   1400020bf:	74 18                	je     1400020d9 <__mingw_TLScallback+0x99>
   1400020c1:	0f 1f 80 00 00 00 00 	nop    DWORD PTR [rax+0x0]
   1400020c8:	48 89 d9             	mov    rcx,rbx
   1400020cb:	48 8b 5b 10          	mov    rbx,QWORD PTR [rbx+0x10]
   1400020cf:	e8 74 05 00 00       	call   140002648 <free>
   1400020d4:	48 85 db             	test   rbx,rbx
   1400020d7:	75 ef                	jne    1400020c8 <__mingw_TLScallback+0x88>
   1400020d9:	48 8d 0d 20 50 00 00 	lea    rcx,[rip+0x5020]        # 140007100 <__mingwthr_cs>
   1400020e0:	48 c7 05 f5 4f 00 00 	mov    QWORD PTR [rip+0x4ff5],0x0        # 1400070e0 <key_dtor_list>
   1400020e7:	00 00 00 00 
   1400020eb:	c7 05 f3 4f 00 00 00 	mov    DWORD PTR [rip+0x4ff3],0x0        # 1400070e8 <__mingwthr_cs_init>
   1400020f2:	00 00 00 
   1400020f5:	ff 15 6d 60 00 00    	call   QWORD PTR [rip+0x606d]        # 140008168 <__IAT_start__>
   1400020fb:	e9 6c ff ff ff       	jmp    14000206c <__mingw_TLScallback+0x2c>
   140002100:	e8 8b f6 ff ff       	call   140001790 <_fpreset>
   140002105:	b8 01 00 00 00       	mov    eax,0x1
   14000210a:	48 83 c4 20          	add    rsp,0x20
   14000210e:	5b                   	pop    rbx
   14000210f:	c3                   	ret
   140002110:	e8 bb fd ff ff       	call   140001ed0 <__mingwthr_run_key_dtors.part.0>
   140002115:	eb 93                	jmp    1400020aa <__mingw_TLScallback+0x6a>
   140002117:	66 0f 1f 84 00 00 00 	nop    WORD PTR [rax+rax*1+0x0]
   14000211e:	00 00 
   140002120:	48 8d 0d d9 4f 00 00 	lea    rcx,[rip+0x4fd9]        # 140007100 <__mingwthr_cs>
   140002127:	ff 15 53 60 00 00    	call   QWORD PTR [rip+0x6053]        # 140008180 <__imp_InitializeCriticalSection>
   14000212d:	e9 30 ff ff ff       	jmp    140002062 <__mingw_TLScallback+0x22>
   140002132:	90                   	nop
   140002133:	90                   	nop
   140002134:	90                   	nop
   140002135:	90                   	nop
   140002136:	90                   	nop
   140002137:	90                   	nop
   140002138:	90                   	nop
   140002139:	90                   	nop
   14000213a:	90                   	nop
   14000213b:	90                   	nop
   14000213c:	90                   	nop
   14000213d:	90                   	nop
   14000213e:	90                   	nop
   14000213f:	90                   	nop

0000000140002140 <_ValidateImageBase>:
   140002140:	31 c0                	xor    eax,eax
   140002142:	66 81 39 4d 5a       	cmp    WORD PTR [rcx],0x5a4d
   140002147:	75 0f                	jne    140002158 <_ValidateImageBase+0x18>
   140002149:	48 63 51 3c          	movsxd rdx,DWORD PTR [rcx+0x3c]
   14000214d:	48 01 d1             	add    rcx,rdx
   140002150:	81 39 50 45 00 00    	cmp    DWORD PTR [rcx],0x4550
   140002156:	74 08                	je     140002160 <_ValidateImageBase+0x20>
   140002158:	c3                   	ret
   140002159:	0f 1f 80 00 00 00 00 	nop    DWORD PTR [rax+0x0]
   140002160:	31 c0                	xor    eax,eax
   140002162:	66 81 79 18 0b 02    	cmp    WORD PTR [rcx+0x18],0x20b
   140002168:	0f 94 c0             	sete   al
   14000216b:	c3                   	ret
   14000216c:	0f 1f 40 00          	nop    DWORD PTR [rax+0x0]

0000000140002170 <_FindPESection>:
   140002170:	48 63 41 3c          	movsxd rax,DWORD PTR [rcx+0x3c]
   140002174:	48 01 c1             	add    rcx,rax
   140002177:	0f b7 41 14          	movzx  eax,WORD PTR [rcx+0x14]
   14000217b:	44 0f b7 41 06       	movzx  r8d,WORD PTR [rcx+0x6]
   140002180:	48 8d 44 01 18       	lea    rax,[rcx+rax*1+0x18]
   140002185:	66 45 85 c0          	test   r8w,r8w
   140002189:	74 32                	je     1400021bd <_FindPESection+0x4d>
   14000218b:	41 8d 48 ff          	lea    ecx,[r8-0x1]
   14000218f:	48 8d 0c 89          	lea    rcx,[rcx+rcx*4]
   140002193:	4c 8d 4c c8 28       	lea    r9,[rax+rcx*8+0x28]
   140002198:	0f 1f 84 00 00 00 00 	nop    DWORD PTR [rax+rax*1+0x0]
   14000219f:	00 
   1400021a0:	44 8b 40 0c          	mov    r8d,DWORD PTR [rax+0xc]
   1400021a4:	4c 89 c1             	mov    rcx,r8
   1400021a7:	4c 39 c2             	cmp    rdx,r8
   1400021aa:	72 08                	jb     1400021b4 <_FindPESection+0x44>
   1400021ac:	03 48 08             	add    ecx,DWORD PTR [rax+0x8]
   1400021af:	48 39 ca             	cmp    rdx,rcx
   1400021b2:	72 0b                	jb     1400021bf <_FindPESection+0x4f>
   1400021b4:	48 83 c0 28          	add    rax,0x28
   1400021b8:	4c 39 c8             	cmp    rax,r9
   1400021bb:	75 e3                	jne    1400021a0 <_FindPESection+0x30>
   1400021bd:	31 c0                	xor    eax,eax
   1400021bf:	c3                   	ret

00000001400021c0 <_FindPESectionByName>:
   1400021c0:	57                   	push   rdi
   1400021c1:	56                   	push   rsi
   1400021c2:	53                   	push   rbx
   1400021c3:	48 83 ec 20          	sub    rsp,0x20
   1400021c7:	48 89 ce             	mov    rsi,rcx
   1400021ca:	e8 a9 04 00 00       	call   140002678 <strlen>
   1400021cf:	48 83 f8 08          	cmp    rax,0x8
   1400021d3:	77 7b                	ja     140002250 <_FindPESectionByName+0x90>
   1400021d5:	48 8b 15 d4 21 00 00 	mov    rdx,QWORD PTR [rip+0x21d4]        # 1400043b0 <.refptr.__image_base__>
   1400021dc:	31 db                	xor    ebx,ebx
   1400021de:	66 81 3a 4d 5a       	cmp    WORD PTR [rdx],0x5a4d
   1400021e3:	75 59                	jne    14000223e <_FindPESectionByName+0x7e>
   1400021e5:	48 63 42 3c          	movsxd rax,DWORD PTR [rdx+0x3c]
   1400021e9:	48 01 d0             	add    rax,rdx
   1400021ec:	81 38 50 45 00 00    	cmp    DWORD PTR [rax],0x4550
   1400021f2:	75 4a                	jne    14000223e <_FindPESectionByName+0x7e>
   1400021f4:	66 81 78 18 0b 02    	cmp    WORD PTR [rax+0x18],0x20b
   1400021fa:	75 42                	jne    14000223e <_FindPESectionByName+0x7e>
   1400021fc:	0f b7 50 14          	movzx  edx,WORD PTR [rax+0x14]
   140002200:	48 8d 5c 10 18       	lea    rbx,[rax+rdx*1+0x18]
   140002205:	0f b7 50 06          	movzx  edx,WORD PTR [rax+0x6]
   140002209:	66 85 d2             	test   dx,dx
   14000220c:	74 42                	je     140002250 <_FindPESectionByName+0x90>
   14000220e:	8d 42 ff             	lea    eax,[rdx-0x1]
   140002211:	48 8d 04 80          	lea    rax,[rax+rax*4]
   140002215:	48 8d 7c c3 28       	lea    rdi,[rbx+rax*8+0x28]
   14000221a:	eb 0d                	jmp    140002229 <_FindPESectionByName+0x69>
   14000221c:	0f 1f 40 00          	nop    DWORD PTR [rax+0x0]
   140002220:	48 83 c3 28          	add    rbx,0x28
   140002224:	48 39 fb             	cmp    rbx,rdi
   140002227:	74 27                	je     140002250 <_FindPESectionByName+0x90>
   140002229:	41 b8 08 00 00 00    	mov    r8d,0x8
   14000222f:	48 89 f2             	mov    rdx,rsi
   140002232:	48 89 d9             	mov    rcx,rbx
   140002235:	e8 46 04 00 00       	call   140002680 <strncmp>
   14000223a:	85 c0                	test   eax,eax
   14000223c:	75 e2                	jne    140002220 <_FindPESectionByName+0x60>
   14000223e:	48 89 d8             	mov    rax,rbx
   140002241:	48 83 c4 20          	add    rsp,0x20
   140002245:	5b                   	pop    rbx
   140002246:	5e                   	pop    rsi
   140002247:	5f                   	pop    rdi
   140002248:	c3                   	ret
   140002249:	0f 1f 80 00 00 00 00 	nop    DWORD PTR [rax+0x0]
   140002250:	31 db                	xor    ebx,ebx
   140002252:	48 89 d8             	mov    rax,rbx
   140002255:	48 83 c4 20          	add    rsp,0x20
   140002259:	5b                   	pop    rbx
   14000225a:	5e                   	pop    rsi
   14000225b:	5f                   	pop    rdi
   14000225c:	c3                   	ret
   14000225d:	0f 1f 00             	nop    DWORD PTR [rax]

0000000140002260 <__mingw_GetSectionForAddress>:
   140002260:	48 8b 15 49 21 00 00 	mov    rdx,QWORD PTR [rip+0x2149]        # 1400043b0 <.refptr.__image_base__>
   140002267:	31 c0                	xor    eax,eax
   140002269:	66 81 3a 4d 5a       	cmp    WORD PTR [rdx],0x5a4d
   14000226e:	75 10                	jne    140002280 <__mingw_GetSectionForAddress+0x20>
   140002270:	4c 63 42 3c          	movsxd r8,DWORD PTR [rdx+0x3c]
   140002274:	49 01 d0             	add    r8,rdx
   140002277:	41 81 38 50 45 00 00 	cmp    DWORD PTR [r8],0x4550
   14000227e:	74 08                	je     140002288 <__mingw_GetSectionForAddress+0x28>
   140002280:	c3                   	ret
   140002281:	0f 1f 80 00 00 00 00 	nop    DWORD PTR [rax+0x0]
   140002288:	66 41 81 78 18 0b 02 	cmp    WORD PTR [r8+0x18],0x20b
   14000228f:	75 ef                	jne    140002280 <__mingw_GetSectionForAddress+0x20>
   140002291:	41 0f b7 40 14       	movzx  eax,WORD PTR [r8+0x14]
   140002296:	48 29 d1             	sub    rcx,rdx
   140002299:	49 8d 44 00 18       	lea    rax,[r8+rax*1+0x18]
   14000229e:	45 0f b7 40 06       	movzx  r8d,WORD PTR [r8+0x6]
   1400022a3:	66 45 85 c0          	test   r8w,r8w
   1400022a7:	74 34                	je     1400022dd <__mingw_GetSectionForAddress+0x7d>
   1400022a9:	41 8d 50 ff          	lea    edx,[r8-0x1]
   1400022ad:	48 8d 14 92          	lea    rdx,[rdx+rdx*4]
   1400022b1:	4c 8d 4c d0 28       	lea    r9,[rax+rdx*8+0x28]
   1400022b6:	66 2e 0f 1f 84 00 00 	cs nop WORD PTR [rax+rax*1+0x0]
   1400022bd:	00 00 00 
   1400022c0:	44 8b 40 0c          	mov    r8d,DWORD PTR [rax+0xc]
   1400022c4:	4c 89 c2             	mov    rdx,r8
   1400022c7:	4c 39 c1             	cmp    rcx,r8
   1400022ca:	72 08                	jb     1400022d4 <__mingw_GetSectionForAddress+0x74>
   1400022cc:	03 50 08             	add    edx,DWORD PTR [rax+0x8]
   1400022cf:	48 39 d1             	cmp    rcx,rdx
   1400022d2:	72 ac                	jb     140002280 <__mingw_GetSectionForAddress+0x20>
   1400022d4:	48 83 c0 28          	add    rax,0x28
   1400022d8:	4c 39 c8             	cmp    rax,r9
   1400022db:	75 e3                	jne    1400022c0 <__mingw_GetSectionForAddress+0x60>
   1400022dd:	31 c0                	xor    eax,eax
   1400022df:	c3                   	ret

00000001400022e0 <__mingw_GetSectionCount>:
   1400022e0:	48 8b 05 c9 20 00 00 	mov    rax,QWORD PTR [rip+0x20c9]        # 1400043b0 <.refptr.__image_base__>
   1400022e7:	31 c9                	xor    ecx,ecx
   1400022e9:	66 81 38 4d 5a       	cmp    WORD PTR [rax],0x5a4d
   1400022ee:	75 0f                	jne    1400022ff <__mingw_GetSectionCount+0x1f>
   1400022f0:	48 63 50 3c          	movsxd rdx,DWORD PTR [rax+0x3c]
   1400022f4:	48 01 d0             	add    rax,rdx
   1400022f7:	81 38 50 45 00 00    	cmp    DWORD PTR [rax],0x4550
   1400022fd:	74 09                	je     140002308 <__mingw_GetSectionCount+0x28>
   1400022ff:	89 c8                	mov    eax,ecx
   140002301:	c3                   	ret
   140002302:	66 0f 1f 44 00 00    	nop    WORD PTR [rax+rax*1+0x0]
   140002308:	66 81 78 18 0b 02    	cmp    WORD PTR [rax+0x18],0x20b
   14000230e:	75 ef                	jne    1400022ff <__mingw_GetSectionCount+0x1f>
   140002310:	0f b7 48 06          	movzx  ecx,WORD PTR [rax+0x6]
   140002314:	89 c8                	mov    eax,ecx
   140002316:	c3                   	ret
   140002317:	66 0f 1f 84 00 00 00 	nop    WORD PTR [rax+rax*1+0x0]
   14000231e:	00 00 

0000000140002320 <_FindPESectionExec>:
   140002320:	4c 8b 05 89 20 00 00 	mov    r8,QWORD PTR [rip+0x2089]        # 1400043b0 <.refptr.__image_base__>
   140002327:	31 c0                	xor    eax,eax
   140002329:	66 41 81 38 4d 5a    	cmp    WORD PTR [r8],0x5a4d
   14000232f:	75 0f                	jne    140002340 <_FindPESectionExec+0x20>
   140002331:	49 63 50 3c          	movsxd rdx,DWORD PTR [r8+0x3c]
   140002335:	4c 01 c2             	add    rdx,r8
   140002338:	81 3a 50 45 00 00    	cmp    DWORD PTR [rdx],0x4550
   14000233e:	74 08                	je     140002348 <_FindPESectionExec+0x28>
   140002340:	c3                   	ret
   140002341:	0f 1f 80 00 00 00 00 	nop    DWORD PTR [rax+0x0]
   140002348:	66 81 7a 18 0b 02    	cmp    WORD PTR [rdx+0x18],0x20b
   14000234e:	75 f0                	jne    140002340 <_FindPESectionExec+0x20>
   140002350:	0f b7 42 14          	movzx  eax,WORD PTR [rdx+0x14]
   140002354:	44 0f b7 42 06       	movzx  r8d,WORD PTR [rdx+0x6]
   140002359:	48 8d 44 02 18       	lea    rax,[rdx+rax*1+0x18]
   14000235e:	66 45 85 c0          	test   r8w,r8w
   140002362:	74 2c                	je     140002390 <_FindPESectionExec+0x70>
   140002364:	41 8d 50 ff          	lea    edx,[r8-0x1]
   140002368:	48 8d 14 92          	lea    rdx,[rdx+rdx*4]
   14000236c:	48 8d 54 d0 28       	lea    rdx,[rax+rdx*8+0x28]
   140002371:	0f 1f 80 00 00 00 00 	nop    DWORD PTR [rax+0x0]
   140002378:	f6 40 27 20          	test   BYTE PTR [rax+0x27],0x20
   14000237c:	74 09                	je     140002387 <_FindPESectionExec+0x67>
   14000237e:	48 85 c9             	test   rcx,rcx
   140002381:	74 bd                	je     140002340 <_FindPESectionExec+0x20>
   140002383:	48 83 e9 01          	sub    rcx,0x1
   140002387:	48 83 c0 28          	add    rax,0x28
   14000238b:	48 39 d0             	cmp    rax,rdx
   14000238e:	75 e8                	jne    140002378 <_FindPESectionExec+0x58>
   140002390:	31 c0                	xor    eax,eax
   140002392:	c3                   	ret
   140002393:	66 66 2e 0f 1f 84 00 	data16 cs nop WORD PTR [rax+rax*1+0x0]
   14000239a:	00 00 00 00 
   14000239e:	66 90                	xchg   ax,ax

00000001400023a0 <_GetPEImageBase>:
   1400023a0:	48 8b 05 09 20 00 00 	mov    rax,QWORD PTR [rip+0x2009]        # 1400043b0 <.refptr.__image_base__>
   1400023a7:	31 d2                	xor    edx,edx
   1400023a9:	66 81 38 4d 5a       	cmp    WORD PTR [rax],0x5a4d
   1400023ae:	75 0f                	jne    1400023bf <_GetPEImageBase+0x1f>
   1400023b0:	48 63 48 3c          	movsxd rcx,DWORD PTR [rax+0x3c]
   1400023b4:	48 01 c1             	add    rcx,rax
   1400023b7:	81 39 50 45 00 00    	cmp    DWORD PTR [rcx],0x4550
   1400023bd:	74 09                	je     1400023c8 <_GetPEImageBase+0x28>
   1400023bf:	48 89 d0             	mov    rax,rdx
   1400023c2:	c3                   	ret
   1400023c3:	0f 1f 44 00 00       	nop    DWORD PTR [rax+rax*1+0x0]
   1400023c8:	66 81 79 18 0b 02    	cmp    WORD PTR [rcx+0x18],0x20b
   1400023ce:	48 0f 44 d0          	cmove  rdx,rax
   1400023d2:	48 89 d0             	mov    rax,rdx
   1400023d5:	c3                   	ret
   1400023d6:	66 2e 0f 1f 84 00 00 	cs nop WORD PTR [rax+rax*1+0x0]
   1400023dd:	00 00 00 

00000001400023e0 <_IsNonwritableInCurrentImage>:
   1400023e0:	48 8b 15 c9 1f 00 00 	mov    rdx,QWORD PTR [rip+0x1fc9]        # 1400043b0 <.refptr.__image_base__>
   1400023e7:	31 c0                	xor    eax,eax
   1400023e9:	66 81 3a 4d 5a       	cmp    WORD PTR [rdx],0x5a4d
   1400023ee:	75 10                	jne    140002400 <_IsNonwritableInCurrentImage+0x20>
   1400023f0:	4c 63 42 3c          	movsxd r8,DWORD PTR [rdx+0x3c]
   1400023f4:	49 01 d0             	add    r8,rdx
   1400023f7:	41 81 38 50 45 00 00 	cmp    DWORD PTR [r8],0x4550
   1400023fe:	74 08                	je     140002408 <_IsNonwritableInCurrentImage+0x28>
   140002400:	c3                   	ret
   140002401:	0f 1f 80 00 00 00 00 	nop    DWORD PTR [rax+0x0]
   140002408:	66 41 81 78 18 0b 02 	cmp    WORD PTR [r8+0x18],0x20b
   14000240f:	75 ef                	jne    140002400 <_IsNonwritableInCurrentImage+0x20>
   140002411:	48 29 d1             	sub    rcx,rdx
   140002414:	45 0f b7 48 06       	movzx  r9d,WORD PTR [r8+0x6]
   140002419:	41 0f b7 50 14       	movzx  edx,WORD PTR [r8+0x14]
   14000241e:	49 8d 54 10 18       	lea    rdx,[r8+rdx*1+0x18]
   140002423:	66 45 85 c9          	test   r9w,r9w
   140002427:	74 d7                	je     140002400 <_IsNonwritableInCurrentImage+0x20>
   140002429:	41 8d 41 ff          	lea    eax,[r9-0x1]
   14000242d:	48 8d 04 80          	lea    rax,[rax+rax*4]
   140002431:	4c 8d 4c c2 28       	lea    r9,[rdx+rax*8+0x28]
   140002436:	66 2e 0f 1f 84 00 00 	cs nop WORD PTR [rax+rax*1+0x0]
   14000243d:	00 00 00 
   140002440:	44 8b 42 0c          	mov    r8d,DWORD PTR [rdx+0xc]
   140002444:	4c 89 c0             	mov    rax,r8
   140002447:	4c 39 c1             	cmp    rcx,r8
   14000244a:	72 08                	jb     140002454 <_IsNonwritableInCurrentImage+0x74>
   14000244c:	03 42 08             	add    eax,DWORD PTR [rdx+0x8]
   14000244f:	48 39 c1             	cmp    rcx,rax
   140002452:	72 0c                	jb     140002460 <_IsNonwritableInCurrentImage+0x80>
   140002454:	48 83 c2 28          	add    rdx,0x28
   140002458:	49 39 d1             	cmp    r9,rdx
   14000245b:	75 e3                	jne    140002440 <_IsNonwritableInCurrentImage+0x60>
   14000245d:	31 c0                	xor    eax,eax
   14000245f:	c3                   	ret
   140002460:	8b 42 24             	mov    eax,DWORD PTR [rdx+0x24]
   140002463:	f7 d0                	not    eax
   140002465:	c1 e8 1f             	shr    eax,0x1f
   140002468:	c3                   	ret
   140002469:	0f 1f 80 00 00 00 00 	nop    DWORD PTR [rax+0x0]

0000000140002470 <__mingw_enum_import_library_names>:
   140002470:	4c 8b 1d 39 1f 00 00 	mov    r11,QWORD PTR [rip+0x1f39]        # 1400043b0 <.refptr.__image_base__>
   140002477:	45 31 c9             	xor    r9d,r9d
   14000247a:	66 41 81 3b 4d 5a    	cmp    WORD PTR [r11],0x5a4d
   140002480:	75 10                	jne    140002492 <__mingw_enum_import_library_names+0x22>
   140002482:	4d 63 43 3c          	movsxd r8,DWORD PTR [r11+0x3c]
   140002486:	4d 01 d8             	add    r8,r11
   140002489:	41 81 38 50 45 00 00 	cmp    DWORD PTR [r8],0x4550
   140002490:	74 0e                	je     1400024a0 <__mingw_enum_import_library_names+0x30>
   140002492:	4c 89 c8             	mov    rax,r9
   140002495:	c3                   	ret
   140002496:	66 2e 0f 1f 84 00 00 	cs nop WORD PTR [rax+rax*1+0x0]
   14000249d:	00 00 00 
   1400024a0:	66 41 81 78 18 0b 02 	cmp    WORD PTR [r8+0x18],0x20b
   1400024a7:	75 e9                	jne    140002492 <__mingw_enum_import_library_names+0x22>
   1400024a9:	41 8b 80 90 00 00 00 	mov    eax,DWORD PTR [r8+0x90]
   1400024b0:	85 c0                	test   eax,eax
   1400024b2:	74 de                	je     140002492 <__mingw_enum_import_library_names+0x22>
   1400024b4:	41 0f b7 50 14       	movzx  edx,WORD PTR [r8+0x14]
   1400024b9:	45 0f b7 50 06       	movzx  r10d,WORD PTR [r8+0x6]
   1400024be:	49 8d 54 10 18       	lea    rdx,[r8+rdx*1+0x18]
   1400024c3:	66 45 85 d2          	test   r10w,r10w
   1400024c7:	74 c9                	je     140002492 <__mingw_enum_import_library_names+0x22>
   1400024c9:	45 8d 42 ff          	lea    r8d,[r10-0x1]
   1400024cd:	4f 8d 04 80          	lea    r8,[r8+r8*4]
   1400024d1:	4e 8d 54 c2 28       	lea    r10,[rdx+r8*8+0x28]
   1400024d6:	66 2e 0f 1f 84 00 00 	cs nop WORD PTR [rax+rax*1+0x0]
   1400024dd:	00 00 00 
   1400024e0:	44 8b 4a 0c          	mov    r9d,DWORD PTR [rdx+0xc]
   1400024e4:	4d 89 c8             	mov    r8,r9
   1400024e7:	4c 39 c8             	cmp    rax,r9
   1400024ea:	72 09                	jb     1400024f5 <__mingw_enum_import_library_names+0x85>
   1400024ec:	44 03 42 08          	add    r8d,DWORD PTR [rdx+0x8]
   1400024f0:	4c 39 c0             	cmp    rax,r8
   1400024f3:	72 13                	jb     140002508 <__mingw_enum_import_library_names+0x98>
   1400024f5:	48 83 c2 28          	add    rdx,0x28
   1400024f9:	4c 39 d2             	cmp    rdx,r10
   1400024fc:	75 e2                	jne    1400024e0 <__mingw_enum_import_library_names+0x70>
   1400024fe:	45 31 c9             	xor    r9d,r9d
   140002501:	4c 89 c8             	mov    rax,r9
   140002504:	c3                   	ret
   140002505:	0f 1f 00             	nop    DWORD PTR [rax]
   140002508:	4c 01 d8             	add    rax,r11
   14000250b:	eb 0a                	jmp    140002517 <__mingw_enum_import_library_names+0xa7>
   14000250d:	0f 1f 00             	nop    DWORD PTR [rax]
   140002510:	83 e9 01             	sub    ecx,0x1
   140002513:	48 83 c0 14          	add    rax,0x14
   140002517:	44 8b 40 04          	mov    r8d,DWORD PTR [rax+0x4]
   14000251b:	45 85 c0             	test   r8d,r8d
   14000251e:	75 07                	jne    140002527 <__mingw_enum_import_library_names+0xb7>
   140002520:	8b 50 0c             	mov    edx,DWORD PTR [rax+0xc]
   140002523:	85 d2                	test   edx,edx
   140002525:	74 d7                	je     1400024fe <__mingw_enum_import_library_names+0x8e>
   140002527:	85 c9                	test   ecx,ecx
   140002529:	7f e5                	jg     140002510 <__mingw_enum_import_library_names+0xa0>
   14000252b:	44 8b 48 0c          	mov    r9d,DWORD PTR [rax+0xc]
   14000252f:	4d 01 d9             	add    r9,r11
   140002532:	4c 89 c8             	mov    rax,r9
   140002535:	c3                   	ret
   140002536:	90                   	nop
   140002537:	90                   	nop
   140002538:	90                   	nop
   140002539:	90                   	nop
   14000253a:	90                   	nop
   14000253b:	90                   	nop
   14000253c:	90                   	nop
   14000253d:	90                   	nop
   14000253e:	90                   	nop
   14000253f:	90                   	nop

0000000140002540 <___chkstk_ms>:
   140002540:	51                   	push   rcx
   140002541:	50                   	push   rax
   140002542:	48 3d 00 10 00 00    	cmp    rax,0x1000
   140002548:	48 8d 4c 24 18       	lea    rcx,[rsp+0x18]
   14000254d:	72 19                	jb     140002568 <___chkstk_ms+0x28>
   14000254f:	48 81 e9 00 10 00 00 	sub    rcx,0x1000
   140002556:	48 83 09 00          	or     QWORD PTR [rcx],0x0
   14000255a:	48 2d 00 10 00 00    	sub    rax,0x1000
   140002560:	48 3d 00 10 00 00    	cmp    rax,0x1000
   140002566:	77 e7                	ja     14000254f <___chkstk_ms+0xf>
   140002568:	48 29 c1             	sub    rcx,rax
   14000256b:	48 83 09 00          	or     QWORD PTR [rcx],0x0
   14000256f:	58                   	pop    rax
   140002570:	59                   	pop    rcx
   140002571:	c3                   	ret
   140002572:	90                   	nop
   140002573:	90                   	nop
   140002574:	90                   	nop
   140002575:	90                   	nop
   140002576:	90                   	nop
   140002577:	90                   	nop
   140002578:	90                   	nop
   140002579:	90                   	nop
   14000257a:	90                   	nop
   14000257b:	90                   	nop
   14000257c:	90                   	nop
   14000257d:	90                   	nop
   14000257e:	90                   	nop
   14000257f:	90                   	nop

0000000140002580 <__p__fmode>:
   140002580:	48 8b 05 59 1e 00 00 	mov    rax,QWORD PTR [rip+0x1e59]        # 1400043e0 <.refptr.__imp__fmode>
   140002587:	48 8b 00             	mov    rax,QWORD PTR [rax]
   14000258a:	c3                   	ret
   14000258b:	90                   	nop
   14000258c:	90                   	nop
   14000258d:	90                   	nop
   14000258e:	90                   	nop
   14000258f:	90                   	nop

0000000140002590 <__p__commode>:
   140002590:	48 8b 05 39 1e 00 00 	mov    rax,QWORD PTR [rip+0x1e39]        # 1400043d0 <.refptr.__imp__commode>
   140002597:	48 8b 00             	mov    rax,QWORD PTR [rax]
   14000259a:	c3                   	ret
   14000259b:	90                   	nop
   14000259c:	90                   	nop
   14000259d:	90                   	nop
   14000259e:	90                   	nop
   14000259f:	90                   	nop

00000001400025a0 <_get_invalid_parameter_handler>:
   1400025a0:	48 8b 05 c9 4b 00 00 	mov    rax,QWORD PTR [rip+0x4bc9]        # 140007170 <handler>
   1400025a7:	c3                   	ret
   1400025a8:	0f 1f 84 00 00 00 00 	nop    DWORD PTR [rax+rax*1+0x0]
   1400025af:	00 

00000001400025b0 <_set_invalid_parameter_handler>:
   1400025b0:	48 89 c8             	mov    rax,rcx
   1400025b3:	48 87 05 b6 4b 00 00 	xchg   QWORD PTR [rip+0x4bb6],rax        # 140007170 <handler>
   1400025ba:	c3                   	ret
   1400025bb:	90                   	nop
   1400025bc:	90                   	nop
   1400025bd:	90                   	nop
   1400025be:	90                   	nop
   1400025bf:	90                   	nop

00000001400025c0 <__acrt_iob_func>:
   1400025c0:	53                   	push   rbx
   1400025c1:	48 83 ec 20          	sub    rsp,0x20
   1400025c5:	89 cb                	mov    ebx,ecx
   1400025c7:	e8 24 00 00 00       	call   1400025f0 <__iob_func>
   1400025cc:	89 d9                	mov    ecx,ebx
   1400025ce:	48 8d 14 49          	lea    rdx,[rcx+rcx*2]
   1400025d2:	48 c1 e2 04          	shl    rdx,0x4
   1400025d6:	48 01 d0             	add    rax,rdx
   1400025d9:	48 83 c4 20          	add    rsp,0x20
   1400025dd:	5b                   	pop    rbx
   1400025de:	c3                   	ret
   1400025df:	90                   	nop

00000001400025e0 <__C_specific_handler>:
   1400025e0:	ff 25 da 5b 00 00    	jmp    QWORD PTR [rip+0x5bda]        # 1400081c0 <__imp___C_specific_handler>
   1400025e6:	90                   	nop
   1400025e7:	90                   	nop

00000001400025e8 <__getmainargs>:
   1400025e8:	ff 25 da 5b 00 00    	jmp    QWORD PTR [rip+0x5bda]        # 1400081c8 <__imp___getmainargs>
   1400025ee:	90                   	nop
   1400025ef:	90                   	nop

00000001400025f0 <__iob_func>:
   1400025f0:	ff 25 e2 5b 00 00    	jmp    QWORD PTR [rip+0x5be2]        # 1400081d8 <__imp___iob_func>
   1400025f6:	90                   	nop
   1400025f7:	90                   	nop

00000001400025f8 <__set_app_type>:
   1400025f8:	ff 25 e2 5b 00 00    	jmp    QWORD PTR [rip+0x5be2]        # 1400081e0 <__imp___set_app_type>
   1400025fe:	90                   	nop
   1400025ff:	90                   	nop

0000000140002600 <__setusermatherr>:
   140002600:	ff 25 e2 5b 00 00    	jmp    QWORD PTR [rip+0x5be2]        # 1400081e8 <__imp___setusermatherr>
   140002606:	90                   	nop
   140002607:	90                   	nop

0000000140002608 <_amsg_exit>:
   140002608:	ff 25 e2 5b 00 00    	jmp    QWORD PTR [rip+0x5be2]        # 1400081f0 <__imp__amsg_exit>
   14000260e:	90                   	nop
   14000260f:	90                   	nop

0000000140002610 <_cexit>:
   140002610:	ff 25 e2 5b 00 00    	jmp    QWORD PTR [rip+0x5be2]        # 1400081f8 <__imp__cexit>
   140002616:	90                   	nop
   140002617:	90                   	nop

0000000140002618 <_initterm>:
   140002618:	ff 25 f2 5b 00 00    	jmp    QWORD PTR [rip+0x5bf2]        # 140008210 <__imp__initterm>
   14000261e:	90                   	nop
   14000261f:	90                   	nop

0000000140002620 <_onexit>:
   140002620:	ff 25 f2 5b 00 00    	jmp    QWORD PTR [rip+0x5bf2]        # 140008218 <__imp__onexit>
   140002626:	90                   	nop
   140002627:	90                   	nop

0000000140002628 <abort>:
   140002628:	ff 25 f2 5b 00 00    	jmp    QWORD PTR [rip+0x5bf2]        # 140008220 <__imp_abort>
   14000262e:	90                   	nop
   14000262f:	90                   	nop

0000000140002630 <calloc>:
   140002630:	ff 25 f2 5b 00 00    	jmp    QWORD PTR [rip+0x5bf2]        # 140008228 <__imp_calloc>
   140002636:	90                   	nop
   140002637:	90                   	nop

0000000140002638 <exit>:
   140002638:	ff 25 f2 5b 00 00    	jmp    QWORD PTR [rip+0x5bf2]        # 140008230 <__imp_exit>
   14000263e:	90                   	nop
   14000263f:	90                   	nop

0000000140002640 <fprintf>:
   140002640:	ff 25 f2 5b 00 00    	jmp    QWORD PTR [rip+0x5bf2]        # 140008238 <__imp_fprintf>
   140002646:	90                   	nop
   140002647:	90                   	nop

0000000140002648 <free>:
   140002648:	ff 25 f2 5b 00 00    	jmp    QWORD PTR [rip+0x5bf2]        # 140008240 <__imp_free>
   14000264e:	90                   	nop
   14000264f:	90                   	nop

0000000140002650 <fwrite>:
   140002650:	ff 25 f2 5b 00 00    	jmp    QWORD PTR [rip+0x5bf2]        # 140008248 <__imp_fwrite>
   140002656:	90                   	nop
   140002657:	90                   	nop

0000000140002658 <malloc>:
   140002658:	ff 25 f2 5b 00 00    	jmp    QWORD PTR [rip+0x5bf2]        # 140008250 <__imp_malloc>
   14000265e:	90                   	nop
   14000265f:	90                   	nop

0000000140002660 <memcpy>:
   140002660:	ff 25 f2 5b 00 00    	jmp    QWORD PTR [rip+0x5bf2]        # 140008258 <__imp_memcpy>
   140002666:	90                   	nop
   140002667:	90                   	nop

0000000140002668 <puts>:
   140002668:	ff 25 f2 5b 00 00    	jmp    QWORD PTR [rip+0x5bf2]        # 140008260 <__imp_puts>
   14000266e:	90                   	nop
   14000266f:	90                   	nop

0000000140002670 <signal>:
   140002670:	ff 25 f2 5b 00 00    	jmp    QWORD PTR [rip+0x5bf2]        # 140008268 <__imp_signal>
   140002676:	90                   	nop
   140002677:	90                   	nop

0000000140002678 <strlen>:
   140002678:	ff 25 f2 5b 00 00    	jmp    QWORD PTR [rip+0x5bf2]        # 140008270 <__imp_strlen>
   14000267e:	90                   	nop
   14000267f:	90                   	nop

0000000140002680 <strncmp>:
   140002680:	ff 25 f2 5b 00 00    	jmp    QWORD PTR [rip+0x5bf2]        # 140008278 <__imp_strncmp>
   140002686:	90                   	nop
   140002687:	90                   	nop

0000000140002688 <vfprintf>:
   140002688:	ff 25 f2 5b 00 00    	jmp    QWORD PTR [rip+0x5bf2]        # 140008280 <__imp_vfprintf>
   14000268e:	90                   	nop
   14000268f:	90                   	nop

0000000140002690 <VirtualQuery>:
   140002690:	ff 25 1a 5b 00 00    	jmp    QWORD PTR [rip+0x5b1a]        # 1400081b0 <__imp_VirtualQuery>
   140002696:	90                   	nop
   140002697:	90                   	nop

0000000140002698 <VirtualProtect>:
   140002698:	ff 25 0a 5b 00 00    	jmp    QWORD PTR [rip+0x5b0a]        # 1400081a8 <__imp_VirtualProtect>
   14000269e:	90                   	nop
   14000269f:	90                   	nop

00000001400026a0 <TlsGetValue>:
   1400026a0:	ff 25 fa 5a 00 00    	jmp    QWORD PTR [rip+0x5afa]        # 1400081a0 <__imp_TlsGetValue>
   1400026a6:	90                   	nop
   1400026a7:	90                   	nop

00000001400026a8 <Sleep>:
   1400026a8:	ff 25 ea 5a 00 00    	jmp    QWORD PTR [rip+0x5aea]        # 140008198 <__imp_Sleep>
   1400026ae:	90                   	nop
   1400026af:	90                   	nop

00000001400026b0 <SetUnhandledExceptionFilter>:
   1400026b0:	ff 25 da 5a 00 00    	jmp    QWORD PTR [rip+0x5ada]        # 140008190 <__imp_SetUnhandledExceptionFilter>
   1400026b6:	90                   	nop
   1400026b7:	90                   	nop

00000001400026b8 <LeaveCriticalSection>:
   1400026b8:	ff 25 ca 5a 00 00    	jmp    QWORD PTR [rip+0x5aca]        # 140008188 <__imp_LeaveCriticalSection>
   1400026be:	90                   	nop
   1400026bf:	90                   	nop

00000001400026c0 <InitializeCriticalSection>:
   1400026c0:	ff 25 ba 5a 00 00    	jmp    QWORD PTR [rip+0x5aba]        # 140008180 <__imp_InitializeCriticalSection>
   1400026c6:	90                   	nop
   1400026c7:	90                   	nop

00000001400026c8 <GetLastError>:
   1400026c8:	ff 25 aa 5a 00 00    	jmp    QWORD PTR [rip+0x5aaa]        # 140008178 <__imp_GetLastError>
   1400026ce:	90                   	nop
   1400026cf:	90                   	nop

00000001400026d0 <EnterCriticalSection>:
   1400026d0:	ff 25 9a 5a 00 00    	jmp    QWORD PTR [rip+0x5a9a]        # 140008170 <__imp_EnterCriticalSection>
   1400026d6:	90                   	nop
   1400026d7:	90                   	nop

00000001400026d8 <DeleteCriticalSection>:
   1400026d8:	ff 25 8a 5a 00 00    	jmp    QWORD PTR [rip+0x5a8a]        # 140008168 <__IAT_start__>
   1400026de:	90                   	nop
   1400026df:	90                   	nop

00000001400026e0 <register_frame_ctor>:
   1400026e0:	e9 4b ed ff ff       	jmp    140001430 <__gcc_register_frame>
   1400026e5:	90                   	nop
   1400026e6:	90                   	nop
   1400026e7:	90                   	nop
   1400026e8:	90                   	nop
   1400026e9:	90                   	nop
   1400026ea:	90                   	nop
   1400026eb:	90                   	nop
   1400026ec:	90                   	nop
   1400026ed:	90                   	nop
   1400026ee:	90                   	nop
   1400026ef:	90                   	nop

00000001400026f0 <__CTOR_LIST__>:
   1400026f0:	ff                   	(bad)
   1400026f1:	ff                   	(bad)
   1400026f2:	ff                   	(bad)
   1400026f3:	ff                   	(bad)
   1400026f4:	ff                   	(bad)
   1400026f5:	ff                   	(bad)
   1400026f6:	ff                   	(bad)
   1400026f7:	ff                   	.byte 0xff

00000001400026f8 <.ctors.65535>:
   1400026f8:	e0 26                	loopne 140002720 <__DTOR_LIST__+0x18>
   1400026fa:	00 40 01             	add    BYTE PTR [rax+0x1],al
	...

0000000140002708 <__DTOR_LIST__>:
   140002708:	ff                   	(bad)
   140002709:	ff                   	(bad)
   14000270a:	ff                   	(bad)
   14000270b:	ff                   	(bad)
   14000270c:	ff                   	(bad)
   14000270d:	ff                   	(bad)
   14000270e:	ff                   	(bad)
   14000270f:	ff 00                	inc    DWORD PTR [rax]
   140002711:	00 00                	add    BYTE PTR [rax],al
   140002713:	00 00                	add    BYTE PTR [rax],al
   140002715:	00 00                	add    BYTE PTR [rax],al
	...
